Component: ARM Compiler 5.06 update 6 (build 750) Tool: armlink [4d35ed]

==============================================================================

Section Cross References

    board.o(i.BOARD_ConfigMPU) refers to board.o(i.SCB_DisableDCache) for SCB_DisableDCache
    board.o(i.BOARD_ConfigMPU) refers to board.o(i.SCB_EnableDCache) for SCB_EnableDCache
    board.o(i.BOARD_ConfigMPU) refers to board.o(i.SCB_EnableICache) for SCB_EnableICache
    board.o(i.BOARD_DebugConsoleSrcFreq) refers to fsl_clock.o(i.CLOCK_GetPllFreq) for CLOCK_GetPllFreq
    board.o(i.BOARD_DebugConsoleSrcFreq) refers to board.o(i.CLOCK_GetDiv) for CLOCK_GetDiv
    board.o(i.BOARD_DebugConsoleSrcFreq) refers to fsl_clock.o(.data) for g_xtalFreq
    board.o(i.BOARD_InitDebugConsole) refers to board.o(i.BOARD_DebugConsoleSrcFreq) for BOARD_DebugConsoleSrcFreq
    board.o(i.BOARD_InitDebugConsole) refers to fsl_debug_console.o(i.DbgConsole_Init) for DbgConsole_Init
    clock_config.o(i.BOARD_BootClockRUN) refers to clock_config.o(i.CLOCK_SetMux) for CLOCK_SetMux
    clock_config.o(i.BOARD_BootClockRUN) refers to fsl_clock.o(i.CLOCK_InitArmPll) for CLOCK_InitArmPll
    clock_config.o(i.BOARD_BootClockRUN) refers to clock_config.o(i.CLOCK_SetDiv) for CLOCK_SetDiv
    clock_config.o(i.BOARD_BootClockRUN) refers to fsl_clock.o(.data) for g_rtcXtalFreq
    clock_config.o(i.BOARD_BootClockRUN) refers to clock_config.o(.constdata) for armPllConfig_BOARD_BootClockRUN
    clock_config.o(i.BOARD_BootClockRUN) refers to system_mimxrt1052.o(.data) for SystemCoreClock
    clock_config.o(i.BOARD_InitBootClocks) refers to clock_config.o(i.BOARD_BootClockRUN) for BOARD_BootClockRUN
    clock_config.o(i.CLOCK_SetDiv) refers to fsl_assert.o(i.__aeabi_assert) for __aeabi_assert
    clock_config.o(i.CLOCK_SetMux) refers to fsl_assert.o(i.__aeabi_assert) for __aeabi_assert
    pin_mux.o(i.BOARD_InitBootPins) refers to pin_mux.o(i.BOARD_InitPins) for BOARD_InitPins
    pin_mux.o(i.BOARD_InitPins) refers to pin_mux.o(i.CLOCK_EnableClock) for CLOCK_EnableClock
    pin_mux.o(i.BOARD_InitPins) refers to pin_mux.o(i.IOMUXC_SetPinMux) for IOMUXC_SetPinMux
    pin_mux.o(i.BOARD_InitPins) refers to pin_mux.o(i.IOMUXC_SetPinConfig) for IOMUXC_SetPinConfig
    pin_mux.o(i.CLOCK_EnableClock) refers to fsl_assert.o(i.__aeabi_assert) for __aeabi_assert
    fingertech_common.o(i.Cdfinger_AttributeTransfer) refers to fingertech_common.o(i.L1CACHE_CleanDCacheByRange) for L1CACHE_CleanDCacheByRange
    fingertech_common.o(i.Cdfinger_AttributeTransfer) refers to fingertech_spiconfig.o(i.DMA_transfer_data) for DMA_transfer_data
    fingertech_common.o(i.Cdfinger_AttributeTransfer) refers to memseta.o(.text) for __aeabi_memclr
    fingertech_common.o(i.Cdfinger_AttributeTransfer) refers to fsl_gpio.o(i.GPIO_PinWrite) for GPIO_PinWrite
    fingertech_common.o(i.Cdfinger_AttributeTransfer) refers to fingertech_common.o(i.LPSPI_EnableDMA) for LPSPI_EnableDMA
    fingertech_common.o(i.Cdfinger_AttributeTransfer) refers to fingertech_common.o(i.LPSPI_Enable) for LPSPI_Enable
    fingertech_common.o(i.Cdfinger_AttributeTransfer) refers to fingertech_spiconfig.o(.data) for flag
    fingertech_common.o(i.Cdfinger_AttributeTransfer) refers to fingertech_camera.o(.bss) for camera_cfg
    fingertech_common.o(i.Cdfinger_AttributeTransfer) refers to fingertech_common.o(NonCacheable.init) for DeNoise_Rx
    fingertech_common.o(i.Cdfinger_ChangeExposureTime) refers to fingertech_flashconfig.o(i.update_camera_cfg) for update_camera_cfg
    fingertech_common.o(i.Cdfinger_ChangeExposureTime) refers to memseta.o(.text) for __aeabi_memclr
    fingertech_common.o(i.Cdfinger_ChangeExposureTime) refers to fingertech_spiconfig.o(i.DMA_transfer_data) for DMA_transfer_data
    fingertech_common.o(i.Cdfinger_ChangeExposureTime) refers to fingertech_common.o(i.LPSPI_EnableDMA) for LPSPI_EnableDMA
    fingertech_common.o(i.Cdfinger_ChangeExposureTime) refers to fingertech_common.o(i.LPSPI_Enable) for LPSPI_Enable
    fingertech_common.o(i.Cdfinger_ChangeExposureTime) refers to fingertech_common.o(NonCacheable.init) for slaveRxData
    fingertech_common.o(i.Cdfinger_ChangeExposureTime) refers to fingertech_camera.o(.bss) for camera_cfg
    fingertech_common.o(i.Cdfinger_ChangeExposureTime) refers to fingertech_spiconfig.o(.data) for flag
    fingertech_common.o(i.Cdfinger_EnrollPrepareTransfer) refers to fingertech_common.o(i.Cdfinger_GetImage) for Cdfinger_GetImage
    fingertech_common.o(i.Cdfinger_EnrollPrepareTransfer) refers to fingertech_spiconfig.o(i.DMA_transfer_data) for DMA_transfer_data
    fingertech_common.o(i.Cdfinger_EnrollPrepareTransfer) refers to memseta.o(.text) for __aeabi_memclr
    fingertech_common.o(i.Cdfinger_EnrollPrepareTransfer) refers to fsl_gpio.o(i.GPIO_PinWrite) for GPIO_PinWrite
    fingertech_common.o(i.Cdfinger_EnrollPrepareTransfer) refers to fingertech_common.o(i.LPSPI_EnableDMA) for LPSPI_EnableDMA
    fingertech_common.o(i.Cdfinger_EnrollPrepareTransfer) refers to fingertech_common.o(i.LPSPI_Enable) for LPSPI_Enable
    fingertech_common.o(i.Cdfinger_EnrollPrepareTransfer) refers to fingertech_common.o(NonCacheable.init) for slaveRxData
    fingertech_common.o(i.Cdfinger_EnrollPrepareTransfer) refers to fingertech_spiconfig.o(.data) for flag
    fingertech_common.o(i.Cdfinger_GetImage) refers to memseta.o(.text) for __aeabi_memclr
    fingertech_common.o(i.Cdfinger_GetImage) refers to fingertech_camera.o(i.FingerTech_GetImg) for FingerTech_GetImg
    fingertech_common.o(i.Cdfinger_GetImage) refers to fingertech_common.o(i.SCB_InvalidateDCache_by_Addr) for SCB_InvalidateDCache_by_Addr
    fingertech_common.o(i.Cdfinger_GetImage) refers to fingertech_algorithm.o(i.FusionImg) for FusionImg
    fingertech_common.o(i.Cdfinger_GetImage) refers to fingertech_i2c_api.o(i.Fingertech_sp0828iicreaddata) for Fingertech_sp0828iicreaddata
    fingertech_common.o(i.Cdfinger_GetImage) refers to fingertech_algorithm.o(i.one_Extrect_three) for one_Extrect_three
    fingertech_common.o(i.Cdfinger_GetImage) refers to fingertech_common.o(i.L1CACHE_CleanDCacheByRange) for L1CACHE_CleanDCacheByRange
    fingertech_common.o(i.Cdfinger_GetImage) refers to fingertech_common.o(NonCacheable.init) for DeNoise_Tx
    fingertech_common.o(i.Cdfinger_GetImage) refers to fingertech_common.o(Cacheable) for s_frameBuffer
    fingertech_common.o(i.Cdfinger_GetImage) refers to fingertech_camera.o(.bss) for camera_cfg
    fingertech_common.o(i.Cdfinger_MoveImage) refers to fingertech_camera.o(i.FingerTech_GetImg) for FingerTech_GetImg
    fingertech_common.o(i.Cdfinger_MoveImage) refers to fingertech_spiconfig.o(i.FingerTech_move_image) for FingerTech_move_image
    fingertech_common.o(i.Cdfinger_MoveImage) refers to fsl_csi.o(i.CSI_ReflashFifoDma) for CSI_ReflashFifoDma
    fingertech_common.o(i.Cdfinger_MoveImage) refers to fsl_csi.o(i.CSI_EnableFifoDmaRequest) for CSI_EnableFifoDmaRequest
    fingertech_common.o(i.Cdfinger_MoveImage) refers to fingertech_flashconfig.o(i.update_camera_cfg) for update_camera_cfg
    fingertech_common.o(i.Cdfinger_MoveImage) refers to memseta.o(.text) for __aeabi_memclr
    fingertech_common.o(i.Cdfinger_MoveImage) refers to fingertech_spiconfig.o(i.DMA_transfer_data) for DMA_transfer_data
    fingertech_common.o(i.Cdfinger_MoveImage) refers to fingertech_common.o(i.LPSPI_EnableDMA) for LPSPI_EnableDMA
    fingertech_common.o(i.Cdfinger_MoveImage) refers to fingertech_common.o(i.LPSPI_Enable) for LPSPI_Enable
    fingertech_common.o(i.Cdfinger_MoveImage) refers to fingertech_common.o(Cacheable) for s_frameBuffer
    fingertech_common.o(i.Cdfinger_MoveImage) refers to fingertech_camera.o(.bss) for camera_cfg
    fingertech_common.o(i.Cdfinger_MoveImage) refers to fingertech_spiconfig.o(.data) for flag
    fingertech_common.o(i.Cdfinger_MoveImage) refers to fingertech_common.o(NonCacheable.init) for slaveRxData
    fingertech_common.o(i.Cdfinger_RecPrepareTransfer) refers to fingertech_common.o(i.Cdfinger_GetImage) for Cdfinger_GetImage
    fingertech_common.o(i.Cdfinger_RecPrepareTransfer) refers to fingertech_spiconfig.o(i.DMA_transfer_data) for DMA_transfer_data
    fingertech_common.o(i.Cdfinger_RecPrepareTransfer) refers to fsl_gpio.o(i.GPIO_PinWrite) for GPIO_PinWrite
    fingertech_common.o(i.Cdfinger_RecPrepareTransfer) refers to fingertech_common.o(NonCacheable.init) for slaveRxData
    fingertech_common.o(i.Cdfinger_RecPrepareTransfer) refers to fingertech_spiconfig.o(.data) for fg_command
    fingertech_common.o(i.Cdfinger_RecPrepareTransfer) refers to fingertech_common.o(.data) for retry_flag
    fingertech_common.o(i.Cdfinger_RetryRecPrepareTransfer) refers to fingertech_spiconfig.o(i.DMA_transfer_data) for DMA_transfer_data
    fingertech_common.o(i.Cdfinger_RetryRecPrepareTransfer) refers to fsl_gpio.o(i.GPIO_PinWrite) for GPIO_PinWrite
    fingertech_common.o(i.Cdfinger_RetryRecPrepareTransfer) refers to fingertech_common.o(.data) for retry_flag
    fingertech_common.o(i.Cdfinger_RetryRecPrepareTransfer) refers to fingertech_common.o(NonCacheable.init) for DeNoise_Rx
    fingertech_common.o(i.Cdfinger_SetCoordinates) refers to fingertech_flashconfig.o(i.update_camera_cfg) for update_camera_cfg
    fingertech_common.o(i.Cdfinger_SetCoordinates) refers to memseta.o(.text) for __aeabi_memclr
    fingertech_common.o(i.Cdfinger_SetCoordinates) refers to fingertech_spiconfig.o(i.DMA_transfer_data) for DMA_transfer_data
    fingertech_common.o(i.Cdfinger_SetCoordinates) refers to fingertech_common.o(i.LPSPI_EnableDMA) for LPSPI_EnableDMA
    fingertech_common.o(i.Cdfinger_SetCoordinates) refers to fingertech_common.o(i.LPSPI_Enable) for LPSPI_Enable
    fingertech_common.o(i.Cdfinger_SetCoordinates) refers to fingertech_common.o(NonCacheable.init) for slaveRxData
    fingertech_common.o(i.Cdfinger_SetCoordinates) refers to fingertech_camera.o(.bss) for camera_cfg
    fingertech_common.o(i.Cdfinger_SetCoordinates) refers to fingertech_spiconfig.o(.data) for flag
    fingertech_common.o(i.FingerTech_BspInit) refers to board.o(i.BOARD_ConfigMPU) for BOARD_ConfigMPU
    fingertech_common.o(i.FingerTech_BspInit) refers to pin_mux.o(i.BOARD_InitPins) for BOARD_InitPins
    fingertech_common.o(i.FingerTech_BspInit) refers to clock_config.o(i.BOARD_BootClockRUN) for BOARD_BootClockRUN
    fingertech_common.o(i.FingerTech_BspInit) refers to fingertech_exit.o(i.FingerTech_NVIC_SetGrouping) for FingerTech_NVIC_SetGrouping
    fingertech_common.o(i.FingerTech_BspInit) refers to fingertech_common.o(i.FingerTech_LedInit) for FingerTech_LedInit
    fingertech_common.o(i.FingerTech_BspInit) refers to fingertech_i2c_api.o(i.Fingertech_sp0828gpioinit) for Fingertech_sp0828gpioinit
    fingertech_common.o(i.FingerTech_BspInit) refers to fingertech_i2c_api.o(i.Fingertech_sp0828iicconfig) for Fingertech_sp0828iicconfig
    fingertech_common.o(i.FingerTech_BspInit) refers to fingertech_common.o(i.FingerTech_Delayms) for FingerTech_Delayms
    fingertech_common.o(i.FingerTech_BspInit) refers to fingertech_camera.o(i.Fingertech_cameragpioinit) for Fingertech_cameragpioinit
    fingertech_common.o(i.FingerTech_BspInit) refers to fingertech_camera.o(i.Fingertech_camerainitresource) for Fingertech_camerainitresource
    fingertech_common.o(i.FingerTech_BspInit) refers to fingertech_camera.o(i.Fingertech_cameraconfig) for Fingertech_cameraconfig
    fingertech_common.o(i.FingerTech_BspUartInit) refers to fsl_lpuart.o(i.LPUART_GetDefaultConfig) for LPUART_GetDefaultConfig
    fingertech_common.o(i.FingerTech_BspUartInit) refers to board.o(i.BOARD_DebugConsoleSrcFreq) for BOARD_DebugConsoleSrcFreq
    fingertech_common.o(i.FingerTech_BspUartInit) refers to fsl_lpuart.o(i.LPUART_Init) for LPUART_Init
    fingertech_common.o(i.FingerTech_FpIntPinInit) refers to fingertech_common.o(i.IOMUXC_SetPinMux) for IOMUXC_SetPinMux
    fingertech_common.o(i.FingerTech_FpIntPinInit) refers to fingertech_common.o(i.IOMUXC_SetPinConfig) for IOMUXC_SetPinConfig
    fingertech_common.o(i.FingerTech_FpIntPinInit) refers to fsl_gpio.o(i.GPIO_PinInit) for GPIO_PinInit
    fingertech_common.o(i.FingerTech_FpIntPinInit) refers to fingertech_exit.o(i.FingerTech_NVIC_SetPriority) for FingerTech_NVIC_SetPriority
    fingertech_common.o(i.FingerTech_LedInit) refers to fingertech_common.o(i.IOMUXC_SetPinMux) for IOMUXC_SetPinMux
    fingertech_common.o(i.FingerTech_LedInit) refers to fingertech_common.o(i.IOMUXC_SetPinConfig) for IOMUXC_SetPinConfig
    fingertech_common.o(i.FingerTech_LedInit) refers to fsl_gpio.o(i.GPIO_PinInit) for GPIO_PinInit
    fingertech_common.o(i.FingerTech_LedInit) refers to fingertech_common.o(.constdata) for .constdata
    fingertech_common.o(i.FingerTech_LedOff) refers to fsl_gpio.o(i.GPIO_PinWrite) for GPIO_PinWrite
    fingertech_common.o(i.FingerTech_LedOn) refers to fsl_gpio.o(i.GPIO_PinWrite) for GPIO_PinWrite
    fingertech_common.o(i.L1CACHE_CleanDCacheByRange) refers to fingertech_common.o(i.SCB_CleanDCache_by_Addr) for SCB_CleanDCache_by_Addr
    fingertech_exit.o(i.CSI_IRQHandler) refers to fsl_csi.o(i.CSI_EnableFifoDmaRequest) for CSI_EnableFifoDmaRequest
    fingertech_exit.o(i.CSI_IRQHandler) refers to fingertech_exit.o(.data) for CSI_intflag
    fingertech_camera.o(i.BOARD_PullCameraPowerDownPin) refers to fsl_gpio.o(i.GPIO_PinWrite) for GPIO_PinWrite
    fingertech_camera.o(i.CLOCK_EnableClock) refers to fsl_assert.o(i.__aeabi_assert) for __aeabi_assert
    fingertech_camera.o(i.CLOCK_EnableClock) refers to fingertech_camera.o(i.CLOCK_SetMux) for i.CLOCK_SetMux
    fingertech_camera.o(i.CLOCK_SetDiv) refers to fsl_assert.o(i.__aeabi_assert) for __aeabi_assert
    fingertech_camera.o(i.CLOCK_SetDiv) refers to fingertech_camera.o(i.CLOCK_SetMux) for i.CLOCK_SetMux
    fingertech_camera.o(i.CLOCK_SetMux) refers to fsl_assert.o(i.__aeabi_assert) for __aeabi_assert
    fingertech_camera.o(i.DistinguishCamera) refers to fingertech_camera.o(i.M1_V1_readid) for M1_V1_readid
    fingertech_camera.o(i.DistinguishCamera) refers to fingertech_flashconfig.o(i.FingerTech_FlashConfig) for FingerTech_FlashConfig
    fingertech_camera.o(i.DistinguishCamera) refers to fingertech_camera.o(.bss) for camera_cfg
    fingertech_camera.o(i.DistinguishCamera) refers to fingertech_camera.o(i.M1_V1_Init) for M1_V1_Init
    fingertech_camera.o(i.DistinguishCamera) refers to fingertech_camera.o(i.M1_V1_Start) for M1_V1_Start
    fingertech_camera.o(i.DistinguishCamera) refers to fingertech_camera.o(i.M1_V1_Stop) for M1_V1_Stop
    fingertech_camera.o(i.DistinguishCamera) refers to pis1701.o(i.PIS1701_Init) for PIS1701_Init
    fingertech_camera.o(i.DistinguishCamera) refers to pis1701.o(i.PIS1701_Start) for PIS1701_Start
    fingertech_camera.o(i.DistinguishCamera) refers to pis1701.o(i.PIS1701_Stop) for PIS1701_Stop
    fingertech_camera.o(i.FingerTech_GetImg) refers to fingertech_camera.o(.bss) for camera_ptr
    fingertech_camera.o(i.FingerTech_GetImg) refers to fingertech_exit.o(.data) for CSI_intflag
    fingertech_camera.o(i.Fingertech_CSI_Init) refers to fsl_csi.o(i.CSI_GetDefaultConfig) for CSI_GetDefaultConfig
    fingertech_camera.o(i.Fingertech_CSI_Init) refers to fsl_csi.o(i.CSI_Init) for CSI_Init
    fingertech_camera.o(i.Fingertech_cameraconfig) refers to fingertech_camera.o(i.DistinguishCamera) for DistinguishCamera
    fingertech_camera.o(i.Fingertech_cameraconfig) refers to memcpya.o(.text) for __aeabi_memcpy4
    fingertech_camera.o(i.Fingertech_cameraconfig) refers to fingertech_camera.o(i.Fingertech_CSI_Init) for Fingertech_CSI_Init
    fingertech_camera.o(i.Fingertech_cameraconfig) refers to fingertech_camera.o(i.BOARD_PullCameraPowerDownPin) for BOARD_PullCameraPowerDownPin
    fingertech_camera.o(i.Fingertech_cameraconfig) refers to fingertech_camera.o(i.M1_V1_DelayMs) for M1_V1_DelayMs
    fingertech_camera.o(i.Fingertech_cameraconfig) refers to fingertech_camera.o(.constdata) for .constdata
    fingertech_camera.o(i.Fingertech_cameraconfig) refers to fingertech_camera.o(.bss) for camera_cfg
    fingertech_camera.o(i.Fingertech_cameragpioinit) refers to fingertech_camera.o(i.CLOCK_EnableClock) for CLOCK_EnableClock
    fingertech_camera.o(i.Fingertech_cameragpioinit) refers to fingertech_camera.o(i.IOMUXC_SetPinMux) for IOMUXC_SetPinMux
    fingertech_camera.o(i.Fingertech_camerainitresource) refers to fingertech_camera.o(i.CLOCK_SetMux) for CLOCK_SetMux
    fingertech_camera.o(i.Fingertech_camerainitresource) refers to fingertech_camera.o(i.CLOCK_SetDiv) for CLOCK_SetDiv
    fingertech_camera.o(i.Fingertech_camerainitresource) refers to fsl_gpio.o(i.GPIO_PinInit) for GPIO_PinInit
    fingertech_camera.o(i.Fingertech_camerainitresource) refers to fingertech_camera.o(.constdata) for .constdata
    fingertech_camera.o(i.M1_V1_DelayMs) refers to system_mimxrt1052.o(.data) for SystemCoreClock
    fingertech_camera.o(i.M1_V1_Init) refers to fingertech_camera.o(i.M1_V1_reset) for M1_V1_reset
    fingertech_camera.o(i.M1_V1_Init) refers to fingertech_camera.o(i.M1_V1_dvp_init) for M1_V1_dvp_init
    fingertech_camera.o(i.M1_V1_Init) refers to fingertech_camera.o(i.M1_V1_config_mclk_pclk) for M1_V1_config_mclk_pclk
    fingertech_camera.o(i.M1_V1_Init) refers to fingertech_spiconfig.o(i.FingerTech_change_exposureTime) for FingerTech_change_exposureTime
    fingertech_camera.o(i.M1_V1_Init) refers to fingertech_camera.o(i.M1_V1__out_frame_size) for M1_V1__out_frame_size
    fingertech_camera.o(i.M1_V1_Init) refers to fingertech_i2c_api.o(i.Fingertech_sp0828iicwritedata) for Fingertech_sp0828iicwritedata
    fingertech_camera.o(i.M1_V1_Init) refers to fingertech_i2c_api.o(i.Fingertech_sp0828iicreaddata) for Fingertech_sp0828iicreaddata
    fingertech_camera.o(i.M1_V1_Init) refers to fsl_csi.o(i.CSI_SetRxBufferAddr) for CSI_SetRxBufferAddr
    fingertech_camera.o(i.M1_V1_Init) refers to fsl_csi.o(i.CSI_EnableInterrupts) for CSI_EnableInterrupts
    fingertech_camera.o(i.M1_V1_Init) refers to fingertech_camera.o(.bss) for camera_cfg
    fingertech_camera.o(i.M1_V1_Init) refers to fingertech_common.o(Cacheable) for s_frameBuffer
    fingertech_camera.o(i.M1_V1_Start) refers to fsl_csi.o(i.CSI_ReflashFifoDma) for CSI_ReflashFifoDma
    fingertech_camera.o(i.M1_V1_Start) refers to fsl_csi.o(i.CSI_EnableFifoDmaRequest) for CSI_EnableFifoDmaRequest
    fingertech_camera.o(i.M1_V1_Start) refers to fingertech_i2c_api.o(i.Fingertech_sp0828iicwritedata) for Fingertech_sp0828iicwritedata
    fingertech_camera.o(i.M1_V1__full_frame_size) refers to fingertech_i2c_api.o(i.Fingertech_sp0828iicwritedata) for Fingertech_sp0828iicwritedata
    fingertech_camera.o(i.M1_V1__out_frame_size) refers to fingertech_i2c_api.o(i.Fingertech_sp0828iicwritedata) for Fingertech_sp0828iicwritedata
    fingertech_camera.o(i.M1_V1_config_mclk_pclk) refers to fingertech_i2c_api.o(i.Fingertech_sp0828iicwritedata) for Fingertech_sp0828iicwritedata
    fingertech_camera.o(i.M1_V1_dvp_init) refers to fingertech_i2c_api.o(i.Fingertech_sp0828iicwritedata) for Fingertech_sp0828iicwritedata
    fingertech_camera.o(i.M1_V1_dvp_init) refers to fingertech_camera.o(.data) for M1_DVP_INIT_Conf
    fingertech_camera.o(i.M1_V1_readid) refers to fingertech_i2c_api.o(i.Fingertech_sp0828iicreaddata) for Fingertech_sp0828iicreaddata
    fingertech_camera.o(i.M1_V1_reset) refers to fingertech_i2c_api.o(i.Fingertech_sp0828iicwritedata) for Fingertech_sp0828iicwritedata
    fingertech_camera.o(i.M1_V1_reset) refers to fingertech_i2c_api.o(i.Fingertech_sp0828iicreaddata) for Fingertech_sp0828iicreaddata
    fsl_csi_camera_adapter.o(i.CSI_ADAPTER_Deinit) refers to fsl_csi.o(i.CSI_Deinit) for CSI_Deinit
    fsl_csi_camera_adapter.o(i.CSI_ADAPTER_GetFullBuffer) refers to fsl_csi.o(i.CSI_TransferGetFullBuffer) for CSI_TransferGetFullBuffer
    fsl_csi_camera_adapter.o(i.CSI_ADAPTER_Init) refers to fsl_csi.o(i.CSI_GetDefaultConfig) for CSI_GetDefaultConfig
    fsl_csi_camera_adapter.o(i.CSI_ADAPTER_Init) refers to fsl_csi.o(i.CSI_Init) for CSI_Init
    fsl_csi_camera_adapter.o(i.CSI_ADAPTER_Init) refers to fsl_csi.o(i.CSI_TransferCreateHandle) for CSI_TransferCreateHandle
    fsl_csi_camera_adapter.o(i.CSI_ADAPTER_Init) refers to fsl_csi_camera_adapter.o(i.CSI_ADAPTER_Callback) for CSI_ADAPTER_Callback
    fsl_csi_camera_adapter.o(i.CSI_ADAPTER_InitExt) refers to fsl_csi_camera_adapter.o(i.CSI_ADAPTER_Init) for CSI_ADAPTER_Init
    fsl_csi_camera_adapter.o(i.CSI_ADAPTER_Start) refers to fsl_csi.o(i.CSI_TransferStart) for CSI_TransferStart
    fsl_csi_camera_adapter.o(i.CSI_ADAPTER_Stop) refers to fsl_csi.o(i.CSI_TransferStop) for CSI_TransferStop
    fsl_csi_camera_adapter.o(i.CSI_ADAPTER_SubmitEmptyBuffer) refers to fsl_csi.o(i.CSI_TransferSubmitEmptyBuffer) for CSI_TransferSubmitEmptyBuffer
    fsl_csi_camera_adapter.o(.constdata) refers to fsl_csi_camera_adapter.o(i.CSI_ADAPTER_Init) for CSI_ADAPTER_Init
    fsl_csi_camera_adapter.o(.constdata) refers to fsl_csi_camera_adapter.o(i.CSI_ADAPTER_Deinit) for CSI_ADAPTER_Deinit
    fsl_csi_camera_adapter.o(.constdata) refers to fsl_csi_camera_adapter.o(i.CSI_ADAPTER_Start) for CSI_ADAPTER_Start
    fsl_csi_camera_adapter.o(.constdata) refers to fsl_csi_camera_adapter.o(i.CSI_ADAPTER_Stop) for CSI_ADAPTER_Stop
    fsl_csi_camera_adapter.o(.constdata) refers to fsl_csi_camera_adapter.o(i.CSI_ADAPTER_SubmitEmptyBuffer) for CSI_ADAPTER_SubmitEmptyBuffer
    fsl_csi_camera_adapter.o(.constdata) refers to fsl_csi_camera_adapter.o(i.CSI_ADAPTER_GetFullBuffer) for CSI_ADAPTER_GetFullBuffer
    fsl_csi_camera_adapter.o(.constdata) refers to fsl_csi_camera_adapter.o(i.CSI_ADAPTER_InitExt) for CSI_ADAPTER_InitExt
    fsl_dmamux.o(i.CLOCK_ControlGate) refers to fsl_assert.o(i.__aeabi_assert) for __aeabi_assert
    fsl_dmamux.o(i.DMAMUX_Deinit) refers to fsl_dmamux.o(i.DMAMUX_GetInstance) for DMAMUX_GetInstance
    fsl_dmamux.o(i.DMAMUX_Deinit) refers to fsl_dmamux.o(i.CLOCK_ControlGate) for CLOCK_ControlGate
    fsl_dmamux.o(i.DMAMUX_Deinit) refers to fsl_dmamux.o(.constdata) for s_dmamuxClockName
    fsl_dmamux.o(i.DMAMUX_GetInstance) refers to fsl_assert.o(i.__aeabi_assert) for __aeabi_assert
    fsl_dmamux.o(i.DMAMUX_GetInstance) refers to fsl_dmamux.o(.constdata) for s_dmamuxBases
    fsl_dmamux.o(i.DMAMUX_Init) refers to fsl_dmamux.o(i.DMAMUX_GetInstance) for DMAMUX_GetInstance
    fsl_dmamux.o(i.DMAMUX_Init) refers to fsl_dmamux.o(i.CLOCK_ControlGate) for CLOCK_ControlGate
    fsl_dmamux.o(i.DMAMUX_Init) refers to fsl_dmamux.o(.constdata) for s_dmamuxClockName
    fsl_edma.o(i.CLOCK_ControlGate) refers to fsl_assert.o(i.__aeabi_assert) for __aeabi_assert
    fsl_edma.o(i.DMA0_0_4_DriverIRQHandler) refers to fsl_edma.o(i.EDMA_GetChannelStatusFlags) for EDMA_GetChannelStatusFlags
    fsl_edma.o(i.DMA0_0_4_DriverIRQHandler) refers to fsl_edma.o(i.EDMA_HandleIRQ) for EDMA_HandleIRQ
    fsl_edma.o(i.DMA0_0_4_DriverIRQHandler) refers to fsl_edma.o(.bss) for s_EDMAHandle
    fsl_edma.o(i.DMA0_10_14_DriverIRQHandler) refers to fsl_edma.o(i.EDMA_GetChannelStatusFlags) for EDMA_GetChannelStatusFlags
    fsl_edma.o(i.DMA0_10_14_DriverIRQHandler) refers to fsl_edma.o(i.EDMA_HandleIRQ) for EDMA_HandleIRQ
    fsl_edma.o(i.DMA0_10_14_DriverIRQHandler) refers to fsl_edma.o(.bss) for s_EDMAHandle
    fsl_edma.o(i.DMA0_11_15_DriverIRQHandler) refers to fsl_edma.o(i.EDMA_GetChannelStatusFlags) for EDMA_GetChannelStatusFlags
    fsl_edma.o(i.DMA0_11_15_DriverIRQHandler) refers to fsl_edma.o(i.EDMA_HandleIRQ) for EDMA_HandleIRQ
    fsl_edma.o(i.DMA0_11_15_DriverIRQHandler) refers to fsl_edma.o(.bss) for s_EDMAHandle
    fsl_edma.o(i.DMA0_16_20_DriverIRQHandler) refers to fsl_edma.o(i.EDMA_GetChannelStatusFlags) for EDMA_GetChannelStatusFlags
    fsl_edma.o(i.DMA0_16_20_DriverIRQHandler) refers to fsl_edma.o(i.EDMA_HandleIRQ) for EDMA_HandleIRQ
    fsl_edma.o(i.DMA0_16_20_DriverIRQHandler) refers to fsl_edma.o(.bss) for s_EDMAHandle
    fsl_edma.o(i.DMA0_17_21_DriverIRQHandler) refers to fsl_edma.o(i.EDMA_GetChannelStatusFlags) for EDMA_GetChannelStatusFlags
    fsl_edma.o(i.DMA0_17_21_DriverIRQHandler) refers to fsl_edma.o(i.EDMA_HandleIRQ) for EDMA_HandleIRQ
    fsl_edma.o(i.DMA0_17_21_DriverIRQHandler) refers to fsl_edma.o(.bss) for s_EDMAHandle
    fsl_edma.o(i.DMA0_18_22_DriverIRQHandler) refers to fsl_edma.o(i.EDMA_GetChannelStatusFlags) for EDMA_GetChannelStatusFlags
    fsl_edma.o(i.DMA0_18_22_DriverIRQHandler) refers to fsl_edma.o(i.EDMA_HandleIRQ) for EDMA_HandleIRQ
    fsl_edma.o(i.DMA0_18_22_DriverIRQHandler) refers to fsl_edma.o(.bss) for s_EDMAHandle
    fsl_edma.o(i.DMA0_19_23_DriverIRQHandler) refers to fsl_edma.o(i.EDMA_GetChannelStatusFlags) for EDMA_GetChannelStatusFlags
    fsl_edma.o(i.DMA0_19_23_DriverIRQHandler) refers to fsl_edma.o(i.EDMA_HandleIRQ) for EDMA_HandleIRQ
    fsl_edma.o(i.DMA0_19_23_DriverIRQHandler) refers to fsl_edma.o(.bss) for s_EDMAHandle
    fsl_edma.o(i.DMA0_1_5_DriverIRQHandler) refers to fsl_edma.o(i.EDMA_GetChannelStatusFlags) for EDMA_GetChannelStatusFlags
    fsl_edma.o(i.DMA0_1_5_DriverIRQHandler) refers to fsl_edma.o(i.EDMA_HandleIRQ) for EDMA_HandleIRQ
    fsl_edma.o(i.DMA0_1_5_DriverIRQHandler) refers to fsl_edma.o(.bss) for s_EDMAHandle
    fsl_edma.o(i.DMA0_24_28_DriverIRQHandler) refers to fsl_edma.o(i.EDMA_GetChannelStatusFlags) for EDMA_GetChannelStatusFlags
    fsl_edma.o(i.DMA0_24_28_DriverIRQHandler) refers to fsl_edma.o(i.EDMA_HandleIRQ) for EDMA_HandleIRQ
    fsl_edma.o(i.DMA0_24_28_DriverIRQHandler) refers to fsl_edma.o(.bss) for s_EDMAHandle
    fsl_edma.o(i.DMA0_25_29_DriverIRQHandler) refers to fsl_edma.o(i.EDMA_GetChannelStatusFlags) for EDMA_GetChannelStatusFlags
    fsl_edma.o(i.DMA0_25_29_DriverIRQHandler) refers to fsl_edma.o(i.EDMA_HandleIRQ) for EDMA_HandleIRQ
    fsl_edma.o(i.DMA0_25_29_DriverIRQHandler) refers to fsl_edma.o(.bss) for s_EDMAHandle
    fsl_edma.o(i.DMA0_26_30_DriverIRQHandler) refers to fsl_edma.o(i.EDMA_GetChannelStatusFlags) for EDMA_GetChannelStatusFlags
    fsl_edma.o(i.DMA0_26_30_DriverIRQHandler) refers to fsl_edma.o(i.EDMA_HandleIRQ) for EDMA_HandleIRQ
    fsl_edma.o(i.DMA0_26_30_DriverIRQHandler) refers to fsl_edma.o(.bss) for s_EDMAHandle
    fsl_edma.o(i.DMA0_27_31_DriverIRQHandler) refers to fsl_edma.o(i.EDMA_GetChannelStatusFlags) for EDMA_GetChannelStatusFlags
    fsl_edma.o(i.DMA0_27_31_DriverIRQHandler) refers to fsl_edma.o(i.EDMA_HandleIRQ) for EDMA_HandleIRQ
    fsl_edma.o(i.DMA0_27_31_DriverIRQHandler) refers to fsl_edma.o(.bss) for s_EDMAHandle
    fsl_edma.o(i.DMA0_2_6_DriverIRQHandler) refers to fsl_edma.o(i.EDMA_GetChannelStatusFlags) for EDMA_GetChannelStatusFlags
    fsl_edma.o(i.DMA0_2_6_DriverIRQHandler) refers to fsl_edma.o(i.EDMA_HandleIRQ) for EDMA_HandleIRQ
    fsl_edma.o(i.DMA0_2_6_DriverIRQHandler) refers to fsl_edma.o(.bss) for s_EDMAHandle
    fsl_edma.o(i.DMA0_3_7_DriverIRQHandler) refers to fsl_edma.o(i.EDMA_GetChannelStatusFlags) for EDMA_GetChannelStatusFlags
    fsl_edma.o(i.DMA0_3_7_DriverIRQHandler) refers to fsl_edma.o(i.EDMA_HandleIRQ) for EDMA_HandleIRQ
    fsl_edma.o(i.DMA0_3_7_DriverIRQHandler) refers to fsl_edma.o(.bss) for s_EDMAHandle
    fsl_edma.o(i.DMA0_8_12_DriverIRQHandler) refers to fsl_edma.o(i.EDMA_GetChannelStatusFlags) for EDMA_GetChannelStatusFlags
    fsl_edma.o(i.DMA0_8_12_DriverIRQHandler) refers to fsl_edma.o(i.EDMA_HandleIRQ) for EDMA_HandleIRQ
    fsl_edma.o(i.DMA0_8_12_DriverIRQHandler) refers to fsl_edma.o(.bss) for s_EDMAHandle
    fsl_edma.o(i.DMA0_9_13_DriverIRQHandler) refers to fsl_edma.o(i.EDMA_GetChannelStatusFlags) for EDMA_GetChannelStatusFlags
    fsl_edma.o(i.DMA0_9_13_DriverIRQHandler) refers to fsl_edma.o(i.EDMA_HandleIRQ) for EDMA_HandleIRQ
    fsl_edma.o(i.DMA0_9_13_DriverIRQHandler) refers to fsl_edma.o(.bss) for s_EDMAHandle
    fsl_edma.o(i.DMA0_DMA16_DriverIRQHandler) refers to fsl_edma.o(i.EDMA_GetChannelStatusFlags) for EDMA_GetChannelStatusFlags
    fsl_edma.o(i.DMA0_DMA16_DriverIRQHandler) refers to fsl_edma.o(i.EDMA_HandleIRQ) for EDMA_HandleIRQ
    fsl_edma.o(i.DMA0_DMA16_DriverIRQHandler) refers to fsl_edma.o(.bss) for s_EDMAHandle
    fsl_edma.o(i.DMA0_DriverIRQHandler) refers to fsl_edma.o(i.EDMA_HandleIRQ) for EDMA_HandleIRQ
    fsl_edma.o(i.DMA0_DriverIRQHandler) refers to fsl_edma.o(.bss) for s_EDMAHandle
    fsl_edma.o(i.DMA10_DMA26_DriverIRQHandler) refers to fsl_edma.o(i.EDMA_GetChannelStatusFlags) for EDMA_GetChannelStatusFlags
    fsl_edma.o(i.DMA10_DMA26_DriverIRQHandler) refers to fsl_edma.o(i.EDMA_HandleIRQ) for EDMA_HandleIRQ
    fsl_edma.o(i.DMA10_DMA26_DriverIRQHandler) refers to fsl_edma.o(.bss) for s_EDMAHandle
    fsl_edma.o(i.DMA10_DriverIRQHandler) refers to fsl_edma.o(i.EDMA_HandleIRQ) for EDMA_HandleIRQ
    fsl_edma.o(i.DMA10_DriverIRQHandler) refers to fsl_edma.o(.bss) for s_EDMAHandle
    fsl_edma.o(i.DMA11_DMA27_DriverIRQHandler) refers to fsl_edma.o(i.EDMA_GetChannelStatusFlags) for EDMA_GetChannelStatusFlags
    fsl_edma.o(i.DMA11_DMA27_DriverIRQHandler) refers to fsl_edma.o(i.EDMA_HandleIRQ) for EDMA_HandleIRQ
    fsl_edma.o(i.DMA11_DMA27_DriverIRQHandler) refers to fsl_edma.o(.bss) for s_EDMAHandle
    fsl_edma.o(i.DMA11_DriverIRQHandler) refers to fsl_edma.o(i.EDMA_HandleIRQ) for EDMA_HandleIRQ
    fsl_edma.o(i.DMA11_DriverIRQHandler) refers to fsl_edma.o(.bss) for s_EDMAHandle
    fsl_edma.o(i.DMA12_DMA28_DriverIRQHandler) refers to fsl_edma.o(i.EDMA_GetChannelStatusFlags) for EDMA_GetChannelStatusFlags
    fsl_edma.o(i.DMA12_DMA28_DriverIRQHandler) refers to fsl_edma.o(i.EDMA_HandleIRQ) for EDMA_HandleIRQ
    fsl_edma.o(i.DMA12_DMA28_DriverIRQHandler) refers to fsl_edma.o(.bss) for s_EDMAHandle
    fsl_edma.o(i.DMA12_DriverIRQHandler) refers to fsl_edma.o(i.EDMA_HandleIRQ) for EDMA_HandleIRQ
    fsl_edma.o(i.DMA12_DriverIRQHandler) refers to fsl_edma.o(.bss) for s_EDMAHandle
    fsl_edma.o(i.DMA13_DMA29_DriverIRQHandler) refers to fsl_edma.o(i.EDMA_GetChannelStatusFlags) for EDMA_GetChannelStatusFlags
    fsl_edma.o(i.DMA13_DMA29_DriverIRQHandler) refers to fsl_edma.o(i.EDMA_HandleIRQ) for EDMA_HandleIRQ
    fsl_edma.o(i.DMA13_DMA29_DriverIRQHandler) refers to fsl_edma.o(.bss) for s_EDMAHandle
    fsl_edma.o(i.DMA13_DriverIRQHandler) refers to fsl_edma.o(i.EDMA_HandleIRQ) for EDMA_HandleIRQ
    fsl_edma.o(i.DMA13_DriverIRQHandler) refers to fsl_edma.o(.bss) for s_EDMAHandle
    fsl_edma.o(i.DMA14_DMA30_DriverIRQHandler) refers to fsl_edma.o(i.EDMA_GetChannelStatusFlags) for EDMA_GetChannelStatusFlags
    fsl_edma.o(i.DMA14_DMA30_DriverIRQHandler) refers to fsl_edma.o(i.EDMA_HandleIRQ) for EDMA_HandleIRQ
    fsl_edma.o(i.DMA14_DMA30_DriverIRQHandler) refers to fsl_edma.o(.bss) for s_EDMAHandle
    fsl_edma.o(i.DMA14_DriverIRQHandler) refers to fsl_edma.o(i.EDMA_HandleIRQ) for EDMA_HandleIRQ
    fsl_edma.o(i.DMA14_DriverIRQHandler) refers to fsl_edma.o(.bss) for s_EDMAHandle
    fsl_edma.o(i.DMA15_DMA31_DriverIRQHandler) refers to fsl_edma.o(i.EDMA_GetChannelStatusFlags) for EDMA_GetChannelStatusFlags
    fsl_edma.o(i.DMA15_DMA31_DriverIRQHandler) refers to fsl_edma.o(i.EDMA_HandleIRQ) for EDMA_HandleIRQ
    fsl_edma.o(i.DMA15_DMA31_DriverIRQHandler) refers to fsl_edma.o(.bss) for s_EDMAHandle
    fsl_edma.o(i.DMA15_DriverIRQHandler) refers to fsl_edma.o(i.EDMA_HandleIRQ) for EDMA_HandleIRQ
    fsl_edma.o(i.DMA15_DriverIRQHandler) refers to fsl_edma.o(.bss) for s_EDMAHandle
    fsl_edma.o(i.DMA16_DriverIRQHandler) refers to fsl_edma.o(i.EDMA_HandleIRQ) for EDMA_HandleIRQ
    fsl_edma.o(i.DMA16_DriverIRQHandler) refers to fsl_edma.o(.bss) for s_EDMAHandle
    fsl_edma.o(i.DMA17_DriverIRQHandler) refers to fsl_edma.o(i.EDMA_HandleIRQ) for EDMA_HandleIRQ
    fsl_edma.o(i.DMA17_DriverIRQHandler) refers to fsl_edma.o(.bss) for s_EDMAHandle
    fsl_edma.o(i.DMA18_DriverIRQHandler) refers to fsl_edma.o(i.EDMA_HandleIRQ) for EDMA_HandleIRQ
    fsl_edma.o(i.DMA18_DriverIRQHandler) refers to fsl_edma.o(.bss) for s_EDMAHandle
    fsl_edma.o(i.DMA19_DriverIRQHandler) refers to fsl_edma.o(i.EDMA_HandleIRQ) for EDMA_HandleIRQ
    fsl_edma.o(i.DMA19_DriverIRQHandler) refers to fsl_edma.o(.bss) for s_EDMAHandle
    fsl_edma.o(i.DMA1_DMA17_DriverIRQHandler) refers to fsl_edma.o(i.EDMA_GetChannelStatusFlags) for EDMA_GetChannelStatusFlags
    fsl_edma.o(i.DMA1_DMA17_DriverIRQHandler) refers to fsl_edma.o(i.EDMA_HandleIRQ) for EDMA_HandleIRQ
    fsl_edma.o(i.DMA1_DMA17_DriverIRQHandler) refers to fsl_edma.o(.bss) for s_EDMAHandle
    fsl_edma.o(i.DMA1_DriverIRQHandler) refers to fsl_edma.o(i.EDMA_HandleIRQ) for EDMA_HandleIRQ
    fsl_edma.o(i.DMA1_DriverIRQHandler) refers to fsl_edma.o(.bss) for s_EDMAHandle
    fsl_edma.o(i.DMA20_DriverIRQHandler) refers to fsl_edma.o(i.EDMA_HandleIRQ) for EDMA_HandleIRQ
    fsl_edma.o(i.DMA20_DriverIRQHandler) refers to fsl_edma.o(.bss) for s_EDMAHandle
    fsl_edma.o(i.DMA21_DriverIRQHandler) refers to fsl_edma.o(i.EDMA_HandleIRQ) for EDMA_HandleIRQ
    fsl_edma.o(i.DMA21_DriverIRQHandler) refers to fsl_edma.o(.bss) for s_EDMAHandle
    fsl_edma.o(i.DMA22_DriverIRQHandler) refers to fsl_edma.o(i.EDMA_HandleIRQ) for EDMA_HandleIRQ
    fsl_edma.o(i.DMA22_DriverIRQHandler) refers to fsl_edma.o(.bss) for s_EDMAHandle
    fsl_edma.o(i.DMA23_DriverIRQHandler) refers to fsl_edma.o(i.EDMA_HandleIRQ) for EDMA_HandleIRQ
    fsl_edma.o(i.DMA23_DriverIRQHandler) refers to fsl_edma.o(.bss) for s_EDMAHandle
    fsl_edma.o(i.DMA24_DriverIRQHandler) refers to fsl_edma.o(i.EDMA_HandleIRQ) for EDMA_HandleIRQ
    fsl_edma.o(i.DMA24_DriverIRQHandler) refers to fsl_edma.o(.bss) for s_EDMAHandle
    fsl_edma.o(i.DMA25_DriverIRQHandler) refers to fsl_edma.o(i.EDMA_HandleIRQ) for EDMA_HandleIRQ
    fsl_edma.o(i.DMA25_DriverIRQHandler) refers to fsl_edma.o(.bss) for s_EDMAHandle
    fsl_edma.o(i.DMA26_DriverIRQHandler) refers to fsl_edma.o(i.EDMA_HandleIRQ) for EDMA_HandleIRQ
    fsl_edma.o(i.DMA26_DriverIRQHandler) refers to fsl_edma.o(.bss) for s_EDMAHandle
    fsl_edma.o(i.DMA27_DriverIRQHandler) refers to fsl_edma.o(i.EDMA_HandleIRQ) for EDMA_HandleIRQ
    fsl_edma.o(i.DMA27_DriverIRQHandler) refers to fsl_edma.o(.bss) for s_EDMAHandle
    fsl_edma.o(i.DMA28_DriverIRQHandler) refers to fsl_edma.o(i.EDMA_HandleIRQ) for EDMA_HandleIRQ
    fsl_edma.o(i.DMA28_DriverIRQHandler) refers to fsl_edma.o(.bss) for s_EDMAHandle
    fsl_edma.o(i.DMA29_DriverIRQHandler) refers to fsl_edma.o(i.EDMA_HandleIRQ) for EDMA_HandleIRQ
    fsl_edma.o(i.DMA29_DriverIRQHandler) refers to fsl_edma.o(.bss) for s_EDMAHandle
    fsl_edma.o(i.DMA2_DMA18_DriverIRQHandler) refers to fsl_edma.o(i.EDMA_GetChannelStatusFlags) for EDMA_GetChannelStatusFlags
    fsl_edma.o(i.DMA2_DMA18_DriverIRQHandler) refers to fsl_edma.o(i.EDMA_HandleIRQ) for EDMA_HandleIRQ
    fsl_edma.o(i.DMA2_DMA18_DriverIRQHandler) refers to fsl_edma.o(.bss) for s_EDMAHandle
    fsl_edma.o(i.DMA2_DriverIRQHandler) refers to fsl_edma.o(i.EDMA_HandleIRQ) for EDMA_HandleIRQ
    fsl_edma.o(i.DMA2_DriverIRQHandler) refers to fsl_edma.o(.bss) for s_EDMAHandle
    fsl_edma.o(i.DMA30_DriverIRQHandler) refers to fsl_edma.o(i.EDMA_HandleIRQ) for EDMA_HandleIRQ
    fsl_edma.o(i.DMA30_DriverIRQHandler) refers to fsl_edma.o(.bss) for s_EDMAHandle
    fsl_edma.o(i.DMA31_DriverIRQHandler) refers to fsl_edma.o(i.EDMA_HandleIRQ) for EDMA_HandleIRQ
    fsl_edma.o(i.DMA31_DriverIRQHandler) refers to fsl_edma.o(.bss) for s_EDMAHandle
    fsl_edma.o(i.DMA3_DMA19_DriverIRQHandler) refers to fsl_edma.o(i.EDMA_GetChannelStatusFlags) for EDMA_GetChannelStatusFlags
    fsl_edma.o(i.DMA3_DMA19_DriverIRQHandler) refers to fsl_edma.o(i.EDMA_HandleIRQ) for EDMA_HandleIRQ
    fsl_edma.o(i.DMA3_DMA19_DriverIRQHandler) refers to fsl_edma.o(.bss) for s_EDMAHandle
    fsl_edma.o(i.DMA3_DriverIRQHandler) refers to fsl_edma.o(i.EDMA_HandleIRQ) for EDMA_HandleIRQ
    fsl_edma.o(i.DMA3_DriverIRQHandler) refers to fsl_edma.o(.bss) for s_EDMAHandle
    fsl_edma.o(i.DMA4_DMA20_DriverIRQHandler) refers to fsl_edma.o(i.EDMA_GetChannelStatusFlags) for EDMA_GetChannelStatusFlags
    fsl_edma.o(i.DMA4_DMA20_DriverIRQHandler) refers to fsl_edma.o(i.EDMA_HandleIRQ) for EDMA_HandleIRQ
    fsl_edma.o(i.DMA4_DMA20_DriverIRQHandler) refers to fsl_edma.o(.bss) for s_EDMAHandle
    fsl_edma.o(i.DMA4_DriverIRQHandler) refers to fsl_edma.o(i.EDMA_HandleIRQ) for EDMA_HandleIRQ
    fsl_edma.o(i.DMA4_DriverIRQHandler) refers to fsl_edma.o(.bss) for s_EDMAHandle
    fsl_edma.o(i.DMA5_DMA21_DriverIRQHandler) refers to fsl_edma.o(i.EDMA_GetChannelStatusFlags) for EDMA_GetChannelStatusFlags
    fsl_edma.o(i.DMA5_DMA21_DriverIRQHandler) refers to fsl_edma.o(i.EDMA_HandleIRQ) for EDMA_HandleIRQ
    fsl_edma.o(i.DMA5_DMA21_DriverIRQHandler) refers to fsl_edma.o(.bss) for s_EDMAHandle
    fsl_edma.o(i.DMA5_DriverIRQHandler) refers to fsl_edma.o(i.EDMA_HandleIRQ) for EDMA_HandleIRQ
    fsl_edma.o(i.DMA5_DriverIRQHandler) refers to fsl_edma.o(.bss) for s_EDMAHandle
    fsl_edma.o(i.DMA6_DMA22_DriverIRQHandler) refers to fsl_edma.o(i.EDMA_GetChannelStatusFlags) for EDMA_GetChannelStatusFlags
    fsl_edma.o(i.DMA6_DMA22_DriverIRQHandler) refers to fsl_edma.o(i.EDMA_HandleIRQ) for EDMA_HandleIRQ
    fsl_edma.o(i.DMA6_DMA22_DriverIRQHandler) refers to fsl_edma.o(.bss) for s_EDMAHandle
    fsl_edma.o(i.DMA6_DriverIRQHandler) refers to fsl_edma.o(i.EDMA_HandleIRQ) for EDMA_HandleIRQ
    fsl_edma.o(i.DMA6_DriverIRQHandler) refers to fsl_edma.o(.bss) for s_EDMAHandle
    fsl_edma.o(i.DMA7_DMA23_DriverIRQHandler) refers to fsl_edma.o(i.EDMA_GetChannelStatusFlags) for EDMA_GetChannelStatusFlags
    fsl_edma.o(i.DMA7_DMA23_DriverIRQHandler) refers to fsl_edma.o(i.EDMA_HandleIRQ) for EDMA_HandleIRQ
    fsl_edma.o(i.DMA7_DMA23_DriverIRQHandler) refers to fsl_edma.o(.bss) for s_EDMAHandle
    fsl_edma.o(i.DMA7_DriverIRQHandler) refers to fsl_edma.o(i.EDMA_HandleIRQ) for EDMA_HandleIRQ
    fsl_edma.o(i.DMA7_DriverIRQHandler) refers to fsl_edma.o(.bss) for s_EDMAHandle
    fsl_edma.o(i.DMA8_DMA24_DriverIRQHandler) refers to fsl_edma.o(i.EDMA_GetChannelStatusFlags) for EDMA_GetChannelStatusFlags
    fsl_edma.o(i.DMA8_DMA24_DriverIRQHandler) refers to fsl_edma.o(i.EDMA_HandleIRQ) for EDMA_HandleIRQ
    fsl_edma.o(i.DMA8_DMA24_DriverIRQHandler) refers to fsl_edma.o(.bss) for s_EDMAHandle
    fsl_edma.o(i.DMA8_DriverIRQHandler) refers to fsl_edma.o(i.EDMA_HandleIRQ) for EDMA_HandleIRQ
    fsl_edma.o(i.DMA8_DriverIRQHandler) refers to fsl_edma.o(.bss) for s_EDMAHandle
    fsl_edma.o(i.DMA9_DMA25_DriverIRQHandler) refers to fsl_edma.o(i.EDMA_GetChannelStatusFlags) for EDMA_GetChannelStatusFlags
    fsl_edma.o(i.DMA9_DMA25_DriverIRQHandler) refers to fsl_edma.o(i.EDMA_HandleIRQ) for EDMA_HandleIRQ
    fsl_edma.o(i.DMA9_DMA25_DriverIRQHandler) refers to fsl_edma.o(.bss) for s_EDMAHandle
    fsl_edma.o(i.DMA9_DriverIRQHandler) refers to fsl_edma.o(i.EDMA_HandleIRQ) for EDMA_HandleIRQ
    fsl_edma.o(i.DMA9_DriverIRQHandler) refers to fsl_edma.o(.bss) for s_EDMAHandle
    fsl_edma.o(i.EDMA_ClearChannelStatusFlags) refers to fsl_assert.o(i.__aeabi_assert) for __aeabi_assert
    fsl_edma.o(i.EDMA_CreateHandle) refers to fsl_assert.o(i.__aeabi_assert) for __aeabi_assert
    fsl_edma.o(i.EDMA_CreateHandle) refers to memseta.o(.text) for __aeabi_memclr4
    fsl_edma.o(i.EDMA_CreateHandle) refers to fsl_edma.o(i.EDMA_GetInstance) for EDMA_GetInstance
    fsl_edma.o(i.EDMA_CreateHandle) refers to fsl_edma.o(i.Get_StartInstance) for Get_StartInstance
    fsl_edma.o(i.EDMA_CreateHandle) refers to fsl_edma.o(.bss) for s_EDMAHandle
    fsl_edma.o(i.EDMA_CreateHandle) refers to fsl_edma.o(.constdata) for s_edmaIRQNumber
    fsl_edma.o(i.EDMA_Deinit) refers to fsl_edma.o(i.EDMA_GetInstance) for EDMA_GetInstance
    fsl_edma.o(i.EDMA_Deinit) refers to fsl_edma.o(i.CLOCK_ControlGate) for CLOCK_ControlGate
    fsl_edma.o(i.EDMA_Deinit) refers to fsl_edma.o(.constdata) for s_edmaClockName
    fsl_edma.o(i.EDMA_DisableChannelInterrupts) refers to fsl_assert.o(i.__aeabi_assert) for __aeabi_assert
    fsl_edma.o(i.EDMA_EnableChannelInterrupts) refers to fsl_assert.o(i.__aeabi_assert) for __aeabi_assert
    fsl_edma.o(i.EDMA_GetChannelStatusFlags) refers to fsl_assert.o(i.__aeabi_assert) for __aeabi_assert
    fsl_edma.o(i.EDMA_GetDefaultConfig) refers to fsl_assert.o(i.__aeabi_assert) for __aeabi_assert
    fsl_edma.o(i.EDMA_GetInstance) refers to fsl_assert.o(i.__aeabi_assert) for __aeabi_assert
    fsl_edma.o(i.EDMA_GetInstance) refers to fsl_edma.o(.constdata) for s_edmaBases
    fsl_edma.o(i.EDMA_GetRemainingMajorLoopCount) refers to fsl_assert.o(i.__aeabi_assert) for __aeabi_assert
    fsl_edma.o(i.EDMA_HandleIRQ) refers to fsl_assert.o(i.__aeabi_assert) for __aeabi_assert
    fsl_edma.o(i.EDMA_Init) refers to fsl_assert.o(i.__aeabi_assert) for __aeabi_assert
    fsl_edma.o(i.EDMA_Init) refers to fsl_edma.o(i.EDMA_GetInstance) for EDMA_GetInstance
    fsl_edma.o(i.EDMA_Init) refers to fsl_edma.o(i.CLOCK_ControlGate) for CLOCK_ControlGate
    fsl_edma.o(i.EDMA_Init) refers to fsl_edma.o(.constdata) for s_edmaClockName
    fsl_edma.o(i.EDMA_InstallTCD) refers to fsl_assert.o(i.__aeabi_assert) for __aeabi_assert
    fsl_edma.o(i.EDMA_InstallTCDMemory) refers to fsl_assert.o(i.__aeabi_assert) for __aeabi_assert
    fsl_edma.o(i.EDMA_PrepareTransfer) refers to fsl_assert.o(i.__aeabi_assert) for __aeabi_assert
    fsl_edma.o(i.EDMA_PrepareTransfer) refers to fsl_edma.o(.conststring) for .conststring
    fsl_edma.o(i.EDMA_ResetChannel) refers to fsl_assert.o(i.__aeabi_assert) for __aeabi_assert
    fsl_edma.o(i.EDMA_ResetChannel) refers to fsl_edma.o(i.EDMA_TcdReset) for EDMA_TcdReset
    fsl_edma.o(i.EDMA_SetBandWidth) refers to fsl_assert.o(i.__aeabi_assert) for __aeabi_assert
    fsl_edma.o(i.EDMA_SetCallback) refers to fsl_assert.o(i.__aeabi_assert) for __aeabi_assert
    fsl_edma.o(i.EDMA_SetChannelLink) refers to fsl_assert.o(i.__aeabi_assert) for __aeabi_assert
    fsl_edma.o(i.EDMA_SetChannelLink) refers to fsl_edma.o(i.EDMA_TcdSetChannelLink) for EDMA_TcdSetChannelLink
    fsl_edma.o(i.EDMA_SetMinorOffsetConfig) refers to fsl_assert.o(i.__aeabi_assert) for __aeabi_assert
    fsl_edma.o(i.EDMA_SetModulo) refers to fsl_assert.o(i.__aeabi_assert) for __aeabi_assert
    fsl_edma.o(i.EDMA_SetTransferConfig) refers to fsl_assert.o(i.__aeabi_assert) for __aeabi_assert
    fsl_edma.o(i.EDMA_SetTransferConfig) refers to fsl_edma.o(i.EDMA_TcdSetTransferConfig) for EDMA_TcdSetTransferConfig
    fsl_edma.o(i.EDMA_StartTransfer) refers to fsl_assert.o(i.__aeabi_assert) for __aeabi_assert
    fsl_edma.o(i.EDMA_StartTransfer) refers to fsl_edma.o(i.DisableGlobalIRQ) for DisableGlobalIRQ
    fsl_edma.o(i.EDMA_StartTransfer) refers to fsl_edma.o(i.EnableGlobalIRQ) for EnableGlobalIRQ
    fsl_edma.o(i.EDMA_StopTransfer) refers to fsl_assert.o(i.__aeabi_assert) for __aeabi_assert
    fsl_edma.o(i.EDMA_SubmitTransfer) refers to fsl_assert.o(i.__aeabi_assert) for __aeabi_assert
    fsl_edma.o(i.EDMA_SubmitTransfer) refers to fsl_edma.o(i.EDMA_SetTransferConfig) for EDMA_SetTransferConfig
    fsl_edma.o(i.EDMA_SubmitTransfer) refers to fsl_edma.o(i.DisableGlobalIRQ) for DisableGlobalIRQ
    fsl_edma.o(i.EDMA_SubmitTransfer) refers to fsl_edma.o(i.EnableGlobalIRQ) for EnableGlobalIRQ
    fsl_edma.o(i.EDMA_SubmitTransfer) refers to fsl_edma.o(i.EDMA_TcdReset) for EDMA_TcdReset
    fsl_edma.o(i.EDMA_SubmitTransfer) refers to fsl_edma.o(i.EDMA_TcdSetTransferConfig) for EDMA_TcdSetTransferConfig
    fsl_edma.o(i.EDMA_SubmitTransfer) refers to fsl_edma.o(i.EDMA_InstallTCD) for EDMA_InstallTCD
    fsl_edma.o(i.EDMA_TcdDisableInterrupts) refers to fsl_assert.o(i.__aeabi_assert) for __aeabi_assert
    fsl_edma.o(i.EDMA_TcdEnableInterrupts) refers to fsl_assert.o(i.__aeabi_assert) for __aeabi_assert
    fsl_edma.o(i.EDMA_TcdReset) refers to fsl_assert.o(i.__aeabi_assert) for __aeabi_assert
    fsl_edma.o(i.EDMA_TcdSetChannelLink) refers to fsl_assert.o(i.__aeabi_assert) for __aeabi_assert
    fsl_edma.o(i.EDMA_TcdSetMinorOffsetConfig) refers to fsl_assert.o(i.__aeabi_assert) for __aeabi_assert
    fsl_edma.o(i.EDMA_TcdSetModulo) refers to fsl_assert.o(i.__aeabi_assert) for __aeabi_assert
    fsl_edma.o(i.EDMA_TcdSetTransferConfig) refers to fsl_assert.o(i.__aeabi_assert) for __aeabi_assert
    fsl_edma.o(i.Get_StartInstance) refers to fsl_edma.o(i.EDMA_GetInstance) for EDMA_GetInstance
    fsl_edma.o(i.Get_StartInstance) refers to fsl_edma.o(.data) for StartInstanceNum
    fsl_lpspi_edma.o(i.EDMA_LpspiMasterCallback) refers to fsl_assert.o(i.__aeabi_assert) for __aeabi_assert
    fsl_lpspi_edma.o(i.EDMA_LpspiMasterCallback) refers to fsl_lpspi_edma.o(i.LPSPI_DisableDMA) for LPSPI_DisableDMA
    fsl_lpspi_edma.o(i.EDMA_LpspiMasterCallback) refers to fsl_lpspi_edma.o(i.LPSPI_GetRxFifoCount) for LPSPI_GetRxFifoCount
    fsl_lpspi_edma.o(i.EDMA_LpspiMasterCallback) refers to fsl_lpspi_edma.o(i.LPSPI_SeparateEdmaReadData) for LPSPI_SeparateEdmaReadData
    fsl_lpspi_edma.o(i.EDMA_LpspiSlaveCallback) refers to fsl_assert.o(i.__aeabi_assert) for __aeabi_assert
    fsl_lpspi_edma.o(i.EDMA_LpspiSlaveCallback) refers to fsl_lpspi_edma.o(i.LPSPI_DisableDMA) for LPSPI_DisableDMA
    fsl_lpspi_edma.o(i.EDMA_LpspiSlaveCallback) refers to fsl_lpspi_edma.o(i.LPSPI_GetRxFifoCount) for LPSPI_GetRxFifoCount
    fsl_lpspi_edma.o(i.EDMA_LpspiSlaveCallback) refers to fsl_lpspi_edma.o(i.LPSPI_SeparateEdmaReadData) for LPSPI_SeparateEdmaReadData
    fsl_lpspi_edma.o(i.LPSPI_MasterTransferAbortEDMA) refers to fsl_assert.o(i.__aeabi_assert) for __aeabi_assert
    fsl_lpspi_edma.o(i.LPSPI_MasterTransferAbortEDMA) refers to fsl_lpspi_edma.o(i.LPSPI_DisableDMA) for LPSPI_DisableDMA
    fsl_lpspi_edma.o(i.LPSPI_MasterTransferAbortEDMA) refers to fsl_edma.o(i.EDMA_AbortTransfer) for EDMA_AbortTransfer
    fsl_lpspi_edma.o(i.LPSPI_MasterTransferCreateHandleEDMA) refers to fsl_assert.o(i.__aeabi_assert) for __aeabi_assert
    fsl_lpspi_edma.o(i.LPSPI_MasterTransferCreateHandleEDMA) refers to memseta.o(.text) for __aeabi_memclr4
    fsl_lpspi_edma.o(i.LPSPI_MasterTransferCreateHandleEDMA) refers to fsl_lpspi.o(i.LPSPI_GetInstance) for LPSPI_GetInstance
    fsl_lpspi_edma.o(i.LPSPI_MasterTransferCreateHandleEDMA) refers to fsl_lpspi_edma.o(.bss) for s_lpspiMasterEdmaPrivateHandle
    fsl_lpspi_edma.o(i.LPSPI_MasterTransferEDMA) refers to fsl_assert.o(i.__aeabi_assert) for __aeabi_assert
    fsl_lpspi_edma.o(i.LPSPI_MasterTransferEDMA) refers to fsl_lpspi.o(i.LPSPI_CheckTransferArgument) for LPSPI_CheckTransferArgument
    fsl_lpspi_edma.o(i.LPSPI_MasterTransferEDMA) refers to fsl_lpspi.o(i.LPSPI_GetInstance) for LPSPI_GetInstance
    fsl_lpspi_edma.o(i.LPSPI_MasterTransferEDMA) refers to fsl_lpspi_edma.o(i.LPSPI_GetRxFifoSize) for LPSPI_GetRxFifoSize
    fsl_lpspi_edma.o(i.LPSPI_MasterTransferEDMA) refers to fsl_lpspi_edma.o(i.LPSPI_SetFifoWatermarks) for LPSPI_SetFifoWatermarks
    fsl_lpspi_edma.o(i.LPSPI_MasterTransferEDMA) refers to fsl_lpspi_edma.o(i.LPSPI_Enable) for LPSPI_Enable
    fsl_lpspi_edma.o(i.LPSPI_MasterTransferEDMA) refers to fsl_lpspi_edma.o(i.LPSPI_FlushFifo) for LPSPI_FlushFifo
    fsl_lpspi_edma.o(i.LPSPI_MasterTransferEDMA) refers to fsl_lpspi_edma.o(i.LPSPI_ClearStatusFlags) for LPSPI_ClearStatusFlags
    fsl_lpspi_edma.o(i.LPSPI_MasterTransferEDMA) refers to fsl_lpspi_edma.o(i.LPSPI_DisableInterrupts) for LPSPI_DisableInterrupts
    fsl_lpspi_edma.o(i.LPSPI_MasterTransferEDMA) refers to fsl_lpspi_edma.o(i.LPSPI_DisableDMA) for LPSPI_DisableDMA
    fsl_lpspi_edma.o(i.LPSPI_MasterTransferEDMA) refers to fsl_edma.o(i.EDMA_SetCallback) for EDMA_SetCallback
    fsl_lpspi_edma.o(i.LPSPI_MasterTransferEDMA) refers to fsl_edma.o(i.EDMA_ResetChannel) for EDMA_ResetChannel
    fsl_lpspi_edma.o(i.LPSPI_MasterTransferEDMA) refers to fsl_edma.o(i.EDMA_SetTransferConfig) for EDMA_SetTransferConfig
    fsl_lpspi_edma.o(i.LPSPI_MasterTransferEDMA) refers to fsl_edma.o(i.EDMA_EnableChannelInterrupts) for EDMA_EnableChannelInterrupts
    fsl_lpspi_edma.o(i.LPSPI_MasterTransferEDMA) refers to fsl_edma.o(i.EDMA_TcdReset) for EDMA_TcdReset
    fsl_lpspi_edma.o(i.LPSPI_MasterTransferEDMA) refers to fsl_edma.o(i.EDMA_TcdSetTransferConfig) for EDMA_TcdSetTransferConfig
    fsl_lpspi_edma.o(i.LPSPI_MasterTransferEDMA) refers to fsl_lpspi.o(.data) for g_lpspiDummyData
    fsl_lpspi_edma.o(i.LPSPI_MasterTransferEDMA) refers to fsl_lpspi_edma.o(.bss) for s_lpspiMasterEdmaPrivateHandle
    fsl_lpspi_edma.o(i.LPSPI_MasterTransferEDMA) refers to fsl_lpspi_edma.o(i.EDMA_LpspiMasterCallback) for EDMA_LpspiMasterCallback
    fsl_lpspi_edma.o(i.LPSPI_MasterTransferEDMA) refers to fsl_edma.o(i.EDMA_StartTransfer) for EDMA_StartTransfer
    fsl_lpspi_edma.o(i.LPSPI_MasterTransferGetCountEDMA) refers to fsl_assert.o(i.__aeabi_assert) for __aeabi_assert
    fsl_lpspi_edma.o(i.LPSPI_MasterTransferGetCountEDMA) refers to fsl_edma.o(i.EDMA_GetRemainingMajorLoopCount) for EDMA_GetRemainingMajorLoopCount
    fsl_lpspi_edma.o(i.LPSPI_SeparateEdmaReadData) refers to fsl_assert.o(i.__aeabi_assert) for __aeabi_assert
    fsl_lpspi_edma.o(i.LPSPI_SlaveTransferAbortEDMA) refers to fsl_assert.o(i.__aeabi_assert) for __aeabi_assert
    fsl_lpspi_edma.o(i.LPSPI_SlaveTransferAbortEDMA) refers to fsl_lpspi_edma.o(i.LPSPI_DisableDMA) for LPSPI_DisableDMA
    fsl_lpspi_edma.o(i.LPSPI_SlaveTransferAbortEDMA) refers to fsl_edma.o(i.EDMA_AbortTransfer) for EDMA_AbortTransfer
    fsl_lpspi_edma.o(i.LPSPI_SlaveTransferCreateHandleEDMA) refers to fsl_assert.o(i.__aeabi_assert) for __aeabi_assert
    fsl_lpspi_edma.o(i.LPSPI_SlaveTransferCreateHandleEDMA) refers to memseta.o(.text) for __aeabi_memclr4
    fsl_lpspi_edma.o(i.LPSPI_SlaveTransferCreateHandleEDMA) refers to fsl_lpspi.o(i.LPSPI_GetInstance) for LPSPI_GetInstance
    fsl_lpspi_edma.o(i.LPSPI_SlaveTransferCreateHandleEDMA) refers to fsl_lpspi_edma.o(.bss) for s_lpspiSlaveEdmaPrivateHandle
    fsl_lpspi_edma.o(i.LPSPI_SlaveTransferEDMA) refers to fsl_assert.o(i.__aeabi_assert) for __aeabi_assert
    fsl_lpspi_edma.o(i.LPSPI_SlaveTransferEDMA) refers to fsl_lpspi.o(i.LPSPI_GetInstance) for LPSPI_GetInstance
    fsl_lpspi_edma.o(i.LPSPI_SlaveTransferEDMA) refers to fsl_lpspi.o(i.LPSPI_CheckTransferArgument) for LPSPI_CheckTransferArgument
    fsl_lpspi_edma.o(i.LPSPI_SlaveTransferEDMA) refers to fsl_lpspi_edma.o(i.LPSPI_GetRxFifoSize) for LPSPI_GetRxFifoSize
    fsl_lpspi_edma.o(i.LPSPI_SlaveTransferEDMA) refers to fsl_lpspi_edma.o(i.LPSPI_SetFifoWatermarks) for LPSPI_SetFifoWatermarks
    fsl_lpspi_edma.o(i.LPSPI_SlaveTransferEDMA) refers to fsl_lpspi_edma.o(i.LPSPI_Enable) for LPSPI_Enable
    fsl_lpspi_edma.o(i.LPSPI_SlaveTransferEDMA) refers to fsl_lpspi_edma.o(i.LPSPI_FlushFifo) for LPSPI_FlushFifo
    fsl_lpspi_edma.o(i.LPSPI_SlaveTransferEDMA) refers to fsl_lpspi_edma.o(i.LPSPI_ClearStatusFlags) for LPSPI_ClearStatusFlags
    fsl_lpspi_edma.o(i.LPSPI_SlaveTransferEDMA) refers to fsl_lpspi_edma.o(i.LPSPI_DisableInterrupts) for LPSPI_DisableInterrupts
    fsl_lpspi_edma.o(i.LPSPI_SlaveTransferEDMA) refers to fsl_lpspi_edma.o(i.LPSPI_DisableDMA) for LPSPI_DisableDMA
    fsl_lpspi_edma.o(i.LPSPI_SlaveTransferEDMA) refers to fsl_edma.o(i.EDMA_ResetChannel) for EDMA_ResetChannel
    fsl_lpspi_edma.o(i.LPSPI_SlaveTransferEDMA) refers to fsl_edma.o(i.EDMA_SetTransferConfig) for EDMA_SetTransferConfig
    fsl_lpspi_edma.o(i.LPSPI_SlaveTransferEDMA) refers to fsl_edma.o(i.EDMA_TcdReset) for EDMA_TcdReset
    fsl_lpspi_edma.o(i.LPSPI_SlaveTransferEDMA) refers to fsl_edma.o(i.EDMA_TcdSetTransferConfig) for EDMA_TcdSetTransferConfig
    fsl_lpspi_edma.o(i.LPSPI_SlaveTransferEDMA) refers to fsl_lpspi.o(.data) for g_lpspiDummyData
    fsl_lpspi_edma.o(i.LPSPI_SlaveTransferEDMA) refers to fsl_edma.o(i.EDMA_EnableChannelInterrupts) for EDMA_EnableChannelInterrupts
    fsl_lpspi_edma.o(i.LPSPI_SlaveTransferEDMA) refers to fsl_edma.o(i.EDMA_SetCallback) for EDMA_SetCallback
    fsl_lpspi_edma.o(i.LPSPI_SlaveTransferEDMA) refers to fsl_edma.o(i.EDMA_StartTransfer) for EDMA_StartTransfer
    fsl_lpspi_edma.o(i.LPSPI_SlaveTransferEDMA) refers to fsl_lpspi_edma.o(.bss) for s_lpspiSlaveEdmaPrivateHandle
    fsl_lpspi_edma.o(i.LPSPI_SlaveTransferEDMA) refers to fsl_lpspi_edma.o(i.EDMA_LpspiSlaveCallback) for EDMA_LpspiSlaveCallback
    fsl_lpspi_edma.o(i.LPSPI_SlaveTransferGetCountEDMA) refers to fsl_assert.o(i.__aeabi_assert) for __aeabi_assert
    fsl_lpspi_edma.o(i.LPSPI_SlaveTransferGetCountEDMA) refers to fsl_edma.o(i.EDMA_GetRemainingMajorLoopCount) for EDMA_GetRemainingMajorLoopCount
    fingertech_spiconfig.o(i.CLOCK_SetDiv) refers to fsl_assert.o(i.__aeabi_assert) for __aeabi_assert
    fingertech_spiconfig.o(i.CLOCK_SetDiv) refers to fingertech_spiconfig.o(i.CLOCK_SetMux) for i.CLOCK_SetMux
    fingertech_spiconfig.o(i.CLOCK_SetMux) refers to fsl_assert.o(i.__aeabi_assert) for __aeabi_assert
    fingertech_spiconfig.o(i.DMAMUX_EnableChannel) refers to fsl_assert.o(i.__aeabi_assert) for __aeabi_assert
    fingertech_spiconfig.o(i.DMAMUX_SetSource) refers to fsl_assert.o(i.__aeabi_assert) for __aeabi_assert
    fingertech_spiconfig.o(i.DMA_transfer_data) refers to fsl_lpspi_edma.o(i.LPSPI_SlaveTransferEDMA) for LPSPI_SlaveTransferEDMA
    fingertech_spiconfig.o(i.DMA_transfer_data) refers to fingertech_spiconfig.o(.bss) for myslaveXfer
    fingertech_spiconfig.o(i.EDMA_Callback) refers to fingertech_spiconfig.o(i.DMA_transfer_data) for DMA_transfer_data
    fingertech_spiconfig.o(i.EDMA_Callback) refers to fsl_gpio.o(i.GPIO_PinWrite) for GPIO_PinWrite
    fingertech_spiconfig.o(i.EDMA_Callback) refers to fingertech_spiconfig.o(i.LPSPI_EnableDMA) for LPSPI_EnableDMA
    fingertech_spiconfig.o(i.EDMA_Callback) refers to fingertech_spiconfig.o(i.LPSPI_Enable) for LPSPI_Enable
    fingertech_spiconfig.o(i.EDMA_Callback) refers to fingertech_spiconfig.o(.data) for fg_command
    fingertech_spiconfig.o(i.EDMA_Callback) refers to fingertech_common.o(NonCacheable.init) for slaveRxData
    fingertech_spiconfig.o(i.FingerTech_change_exposureGain) refers to fingertech_i2c_api.o(i.Fingertech_sp0828iicwritedata) for Fingertech_sp0828iicwritedata
    fingertech_spiconfig.o(i.FingerTech_change_exposureGain) refers to fingertech_common.o(NonCacheable.init) for slaveRxData
    fingertech_spiconfig.o(i.FingerTech_change_exposureTime) refers to fingertech_camera.o(i.M1_V1__full_frame_size) for M1_V1__full_frame_size
    fingertech_spiconfig.o(i.FingerTech_change_exposureTime) refers to fingertech_i2c_api.o(i.Fingertech_sp0828iicwritedata) for Fingertech_sp0828iicwritedata
    fingertech_spiconfig.o(i.FingerTech_change_exposureTime) refers to fingertech_camera.o(.bss) for camera_cfg
    fingertech_spiconfig.o(i.FingerTech_move_image) refers to fingertech_algorithm.o(i.coordinate) for coordinate
    fingertech_spiconfig.o(i.FingerTech_move_image) refers to fingertech_camera.o(.bss) for camera_cfg
    fingertech_spiconfig.o(i.Fingertech_SpiConfig) refers to fingertech_spiconfig.o(i.CLOCK_SetMux) for CLOCK_SetMux
    fingertech_spiconfig.o(i.Fingertech_SpiConfig) refers to fingertech_spiconfig.o(i.CLOCK_SetDiv) for CLOCK_SetDiv
    fingertech_spiconfig.o(i.Fingertech_SpiConfig) refers to fsl_lpspi.o(i.LPSPI_SlaveInit) for LPSPI_SlaveInit
    fingertech_spiconfig.o(i.Fingertech_SpiConfig) refers to fsl_gpio.o(i.GPIO_PinInit) for GPIO_PinInit
    fingertech_spiconfig.o(i.Fingertech_SpiConfig) refers to fsl_gpio.o(i.GPIO_PinWrite) for GPIO_PinWrite
    fingertech_spiconfig.o(i.Fingertech_SpiConfig) refers to fsl_dmamux.o(i.DMAMUX_Init) for DMAMUX_Init
    fingertech_spiconfig.o(i.Fingertech_SpiConfig) refers to fsl_edma.o(i.EDMA_GetDefaultConfig) for EDMA_GetDefaultConfig
    fingertech_spiconfig.o(i.Fingertech_SpiConfig) refers to fsl_edma.o(i.EDMA_Init) for EDMA_Init
    fingertech_spiconfig.o(i.Fingertech_SpiConfig) refers to fingertech_spiconfig.o(i.DMAMUX_SetSource) for DMAMUX_SetSource
    fingertech_spiconfig.o(i.Fingertech_SpiConfig) refers to fingertech_spiconfig.o(i.DMAMUX_EnableChannel) for DMAMUX_EnableChannel
    fingertech_spiconfig.o(i.Fingertech_SpiConfig) refers to fsl_edma.o(i.EDMA_CreateHandle) for EDMA_CreateHandle
    fingertech_spiconfig.o(i.Fingertech_SpiConfig) refers to fsl_lpspi_edma.o(i.LPSPI_SlaveTransferCreateHandleEDMA) for LPSPI_SlaveTransferCreateHandleEDMA
    fingertech_spiconfig.o(i.Fingertech_SpiConfig) refers to fingertech_spiconfig.o(i.DMA_transfer_data) for DMA_transfer_data
    fingertech_spiconfig.o(i.Fingertech_SpiConfig) refers to fingertech_spiconfig.o(i.LPSPI_EnableDMA) for LPSPI_EnableDMA
    fingertech_spiconfig.o(i.Fingertech_SpiConfig) refers to fingertech_spiconfig.o(i.LPSPI_Enable) for LPSPI_Enable
    fingertech_spiconfig.o(i.Fingertech_SpiConfig) refers to fingertech_spiconfig.o(.constdata) for .constdata
    fingertech_spiconfig.o(i.Fingertech_SpiConfig) refers to fingertech_spiconfig.o(.bss) for txHandle
    fingertech_spiconfig.o(i.Fingertech_SpiConfig) refers to fingertech_spiconfig.o(i.EDMA_Callback) for EDMA_Callback
    fingertech_spiconfig.o(i.Fingertech_SpiConfig) refers to fingertech_common.o(NonCacheable.init) for slaveRxData
    fingertech_algorithm.o(i.Navi_matResize) refers to ldiv.o(.text) for __aeabi_ldivmod
    fingertech_algorithm.o(i.QuarterPicture) refers to printf8.o(i.__0printf$8) for __2printf
    fingertech_algorithm.o(i.coordinate) refers to fingertech_algorithm.o(i.im_mean) for im_mean
    fingertech_algorithm.o(i.one_Extrect_three) refers to fingertech_camera.o(.bss) for camera_cfg
    fingertech_algorithm.o(i.one_Extrect_three) refers to fingertech_algorithm.o(.data) for count
    main.o(i.main) refers to fingertech_common.o(i.FingerTech_BspInit) for FingerTech_BspInit
    main.o(i.main) refers to fingertech_spiconfig.o(i.Fingertech_SpiConfig) for Fingertech_SpiConfig
    main.o(i.main) refers to fingertech_common.o(i.Cdfinger_ChangeExposureTime) for Cdfinger_ChangeExposureTime
    main.o(i.main) refers to fingertech_spiconfig.o(i.FingerTech_change_exposureGain) for FingerTech_change_exposureGain
    main.o(i.main) refers to fingertech_common.o(i.Cdfinger_MoveImage) for Cdfinger_MoveImage
    main.o(i.main) refers to fingertech_common.o(i.Cdfinger_EnrollPrepareTransfer) for Cdfinger_EnrollPrepareTransfer
    main.o(i.main) refers to fingertech_common.o(i.Cdfinger_RetryRecPrepareTransfer) for Cdfinger_RetryRecPrepareTransfer
    main.o(i.main) refers to fingertech_common.o(i.Cdfinger_RecPrepareTransfer) for Cdfinger_RecPrepareTransfer
    main.o(i.main) refers to fingertech_common.o(i.Cdfinger_AttributeTransfer) for Cdfinger_AttributeTransfer
    main.o(i.main) refers to fingertech_common.o(i.Cdfinger_SetCoordinates) for Cdfinger_SetCoordinates
    main.o(i.main) refers to fingertech_spiconfig.o(.data) for flag
    main.o(i.main) refers to fingertech_common.o(NonCacheable.init) for slaveRxData
    fingertech_i2c_api.o(i.CLOCK_EnableClock) refers to fsl_assert.o(i.__aeabi_assert) for __aeabi_assert
    fingertech_i2c_api.o(i.CLOCK_EnableClock) refers to fingertech_i2c_api.o(i.CLOCK_SetMux) for i.CLOCK_SetMux
    fingertech_i2c_api.o(i.CLOCK_SetDiv) refers to fsl_assert.o(i.__aeabi_assert) for __aeabi_assert
    fingertech_i2c_api.o(i.CLOCK_SetDiv) refers to fingertech_i2c_api.o(i.CLOCK_SetMux) for i.CLOCK_SetMux
    fingertech_i2c_api.o(i.CLOCK_SetMux) refers to fsl_assert.o(i.__aeabi_assert) for __aeabi_assert
    fingertech_i2c_api.o(i.Fingertech_sp0828gpioinit) refers to fingertech_i2c_api.o(i.CLOCK_EnableClock) for CLOCK_EnableClock
    fingertech_i2c_api.o(i.Fingertech_sp0828gpioinit) refers to fingertech_i2c_api.o(i.IOMUXC_SetPinMux) for IOMUXC_SetPinMux
    fingertech_i2c_api.o(i.Fingertech_sp0828gpioinit) refers to fingertech_i2c_api.o(i.IOMUXC_SetPinConfig) for IOMUXC_SetPinConfig
    fingertech_i2c_api.o(i.Fingertech_sp0828iicconfig) refers to fingertech_i2c_api.o(i.CLOCK_SetMux) for CLOCK_SetMux
    fingertech_i2c_api.o(i.Fingertech_sp0828iicconfig) refers to fingertech_i2c_api.o(i.CLOCK_SetDiv) for CLOCK_SetDiv
    fingertech_i2c_api.o(i.Fingertech_sp0828iicconfig) refers to fsl_lpi2c.o(i.LPI2C_MasterGetDefaultConfig) for LPI2C_MasterGetDefaultConfig
    fingertech_i2c_api.o(i.Fingertech_sp0828iicconfig) refers to fsl_clock.o(i.CLOCK_GetFreq) for CLOCK_GetFreq
    fingertech_i2c_api.o(i.Fingertech_sp0828iicconfig) refers to fsl_lpi2c.o(i.LPI2C_MasterInit) for LPI2C_MasterInit
    fingertech_i2c_api.o(i.Fingertech_sp0828iicreaddata) refers to fsl_lpi2c.o(i.LPI2C_MasterTransferBlocking) for LPI2C_MasterTransferBlocking
    fingertech_i2c_api.o(i.Fingertech_sp0828iicwritedata) refers to memseta.o(.text) for __aeabi_memclr4
    fingertech_i2c_api.o(i.Fingertech_sp0828iicwritedata) refers to fsl_lpi2c.o(i.LPI2C_MasterTransferBlocking) for LPI2C_MasterTransferBlocking
    fingertech_flashconfig.o(NonCacheable) refers to fsl_flexspi.o(NonCacheable) for FLEXSPI_TransferBlocking
    fingertech_flashconfig.o(i.FingerTech_FlashConfig) refers to memseta.o(.text) for __aeabi_memclr4
    fingertech_flashconfig.o(i.FingerTech_FlashConfig) refers to fsl_flexspi.o(NonCacheable) for FLEXSPI_UpdateLUT
    fingertech_flashconfig.o(i.FingerTech_FlashConfig) refers to fingertech_flashconfig.o(i.DisableGlobalIRQ) for DisableGlobalIRQ
    fingertech_flashconfig.o(i.FingerTech_FlashConfig) refers to fingertech_flashconfig.o(NonCacheable) for flexspi_nor_get_vendor_id
    fingertech_flashconfig.o(i.FingerTech_FlashConfig) refers to fingertech_flashconfig.o(i.EnableGlobalIRQ) for EnableGlobalIRQ
    fingertech_flashconfig.o(i.FingerTech_FlashConfig) refers to memcpya.o(.text) for __aeabi_memcpy
    fingertech_flashconfig.o(i.FingerTech_FlashConfig) refers to fingertech_flashconfig.o(.constdata) for customLUT
    fingertech_flashconfig.o(i.FingerTech_FlashConfig) refers to fingertech_camera.o(.bss) for camera_cfg
    fingertech_flashconfig.o(i.update_camera_cfg) refers to fingertech_flashconfig.o(i.DisableGlobalIRQ) for DisableGlobalIRQ
    fingertech_flashconfig.o(i.update_camera_cfg) refers to fingertech_flashconfig.o(NonCacheable) for flexspi_nor_flash_erase_sector
    fingertech_flashconfig.o(i.update_camera_cfg) refers to fingertech_flashconfig.o(i.EnableGlobalIRQ) for EnableGlobalIRQ
    fingertech_flashconfig.o(i.update_camera_cfg) refers to fingertech_camera.o(.bss) for camera_cfg
    pis1701.o(i.PIS1701_Init) refers to fingertech_i2c_api.o(i.Fingertech_sp0828iicwritedata) for Fingertech_sp0828iicwritedata
    pis1701.o(i.PIS1701_Init) refers to pis1701.o(i.PIS1701_change_exposureTime) for PIS1701_change_exposureTime
    pis1701.o(i.PIS1701_Init) refers to pis1701.o(i.PIS1701_out_frame_size) for PIS1701_out_frame_size
    pis1701.o(i.PIS1701_Init) refers to fsl_csi.o(i.CSI_SetRxBufferAddr) for CSI_SetRxBufferAddr
    pis1701.o(i.PIS1701_Init) refers to fsl_csi.o(i.CSI_EnableInterrupts) for CSI_EnableInterrupts
    pis1701.o(i.PIS1701_Init) refers to fingertech_camera.o(.bss) for camera_cfg
    pis1701.o(i.PIS1701_Init) refers to fingertech_common.o(Cacheable) for s_frameBuffer
    pis1701.o(i.PIS1701_Start) refers to fingertech_camera.o(i.BOARD_PullCameraPowerDownPin) for BOARD_PullCameraPowerDownPin
    pis1701.o(i.PIS1701_Start) refers to fsl_csi.o(i.CSI_ReflashFifoDma) for CSI_ReflashFifoDma
    pis1701.o(i.PIS1701_Start) refers to fsl_csi.o(i.CSI_EnableFifoDmaRequest) for CSI_EnableFifoDmaRequest
    pis1701.o(i.PIS1701_Stop) refers to fingertech_camera.o(i.BOARD_PullCameraPowerDownPin) for BOARD_PullCameraPowerDownPin
    pis1701.o(i.PIS1701__full_frame_size) refers to fingertech_i2c_api.o(i.Fingertech_sp0828iicwritedata) for Fingertech_sp0828iicwritedata
    pis1701.o(i.PIS1701_change_exposureTime) refers to printf8.o(i.__0printf$8) for __2printf
    pis1701.o(i.PIS1701_change_exposureTime) refers to pis1701.o(i.PIS1701__full_frame_size) for PIS1701__full_frame_size
    pis1701.o(i.PIS1701_change_exposureTime) refers to fingertech_i2c_api.o(i.Fingertech_sp0828iicwritedata) for Fingertech_sp0828iicwritedata
    pis1701.o(i.PIS1701_change_exposureTime) refers to fingertech_camera.o(.bss) for camera_cfg
    pis1701.o(i.PIS1701_config_exposureGain) refers to fingertech_i2c_api.o(i.Fingertech_sp0828iicwritedata) for Fingertech_sp0828iicwritedata
    pis1701.o(i.PIS1701_out_frame_size) refers to fingertech_i2c_api.o(i.Fingertech_sp0828iicwritedata) for Fingertech_sp0828iicwritedata
    fsl_clock.o(i.CLOCK_EnableUsbhs0PhyPllClock) refers to fsl_clock.o(i.CLOCK_InitUsb1Pll) for CLOCK_InitUsb1Pll
    fsl_clock.o(i.CLOCK_EnableUsbhs1PhyPllClock) refers to fsl_clock.o(i.CLOCK_InitUsb2Pll) for CLOCK_InitUsb2Pll
    fsl_clock.o(i.CLOCK_GetFreq) refers to fsl_clock.o(i.CLOCK_GetPeriphClkFreq) for CLOCK_GetPeriphClkFreq
    fsl_clock.o(i.CLOCK_GetFreq) refers to fsl_clock.o(i.CLOCK_GetUsb1PfdFreq) for CLOCK_GetUsb1PfdFreq
    fsl_clock.o(i.CLOCK_GetFreq) refers to fsl_clock.o(i.CLOCK_GetSysPfdFreq) for CLOCK_GetSysPfdFreq
    fsl_clock.o(i.CLOCK_GetFreq) refers to fsl_clock.o(i.CLOCK_GetOscFreq) for CLOCK_GetOscFreq
    fsl_clock.o(i.CLOCK_GetFreq) refers to fsl_clock.o(i.CLOCK_GetPllFreq) for CLOCK_GetPllFreq
    fsl_clock.o(i.CLOCK_GetOscFreq) refers to fsl_clock.o(.data) for g_xtalFreq
    fsl_clock.o(i.CLOCK_GetPeriphClkFreq) refers to fsl_clock.o(i.CLOCK_GetPllFreq) for CLOCK_GetPllFreq
    fsl_clock.o(i.CLOCK_GetPeriphClkFreq) refers to fsl_clock.o(i.CLOCK_GetOscFreq) for CLOCK_GetOscFreq
    fsl_clock.o(i.CLOCK_GetPeriphClkFreq) refers to fsl_clock.o(i.CLOCK_GetSysPfdFreq) for CLOCK_GetSysPfdFreq
    fsl_clock.o(i.CLOCK_GetPllFreq) refers to fsl_clock.o(i.CLOCK_GetOscFreq) for CLOCK_GetOscFreq
    fsl_clock.o(i.CLOCK_GetPllFreq) refers to uldiv.o(.text) for __aeabi_uldivmod
    fsl_clock.o(i.CLOCK_GetPllFreq) refers to fsl_clock.o(.constdata) for .constdata
    fsl_clock.o(i.CLOCK_GetSysPfdFreq) refers to fsl_clock.o(i.CLOCK_GetPllFreq) for CLOCK_GetPllFreq
    fsl_clock.o(i.CLOCK_GetUsb1PfdFreq) refers to fsl_clock.o(i.CLOCK_GetPllFreq) for CLOCK_GetPllFreq
    fsl_clock.o(i.CLOCK_InitExternalClk) refers to fsl_assert.o(i.__aeabi_assert) for __aeabi_assert
    fsl_dcdc.o(i.CLOCK_ControlGate) refers to fsl_assert.o(i.__aeabi_assert) for __aeabi_assert
    fsl_dcdc.o(i.DCDC_Deinit) refers to fsl_dcdc.o(i.DCDC_GetInstance) for DCDC_GetInstance
    fsl_dcdc.o(i.DCDC_Deinit) refers to fsl_dcdc.o(i.CLOCK_ControlGate) for CLOCK_ControlGate
    fsl_dcdc.o(i.DCDC_Deinit) refers to fsl_dcdc.o(.constdata) for s_dcdcClocks
    fsl_dcdc.o(i.DCDC_GetDefaultDetectionConfig) refers to fsl_assert.o(i.__aeabi_assert) for __aeabi_assert
    fsl_dcdc.o(i.DCDC_GetDefaultLoopControlConfig) refers to fsl_assert.o(i.__aeabi_assert) for __aeabi_assert
    fsl_dcdc.o(i.DCDC_GetDefaultLowPowerConfig) refers to fsl_assert.o(i.__aeabi_assert) for __aeabi_assert
    fsl_dcdc.o(i.DCDC_GetInstance) refers to fsl_assert.o(i.__aeabi_assert) for __aeabi_assert
    fsl_dcdc.o(i.DCDC_GetInstance) refers to fsl_dcdc.o(.constdata) for s_dcdcBases
    fsl_dcdc.o(i.DCDC_Init) refers to fsl_dcdc.o(i.DCDC_GetInstance) for DCDC_GetInstance
    fsl_dcdc.o(i.DCDC_Init) refers to fsl_dcdc.o(i.CLOCK_ControlGate) for CLOCK_ControlGate
    fsl_dcdc.o(i.DCDC_Init) refers to fsl_dcdc.o(.constdata) for s_dcdcClocks
    fsl_dcdc.o(i.DCDC_SetDetectionConfig) refers to fsl_assert.o(i.__aeabi_assert) for __aeabi_assert
    fsl_dcdc.o(i.DCDC_SetInternalRegulatorConfig) refers to fsl_assert.o(i.__aeabi_assert) for __aeabi_assert
    fsl_dcdc.o(i.DCDC_SetLoopControlConfig) refers to fsl_assert.o(i.__aeabi_assert) for __aeabi_assert
    fsl_dcdc.o(i.DCDC_SetLowPowerConfig) refers to fsl_assert.o(i.__aeabi_assert) for __aeabi_assert
    fsl_dcdc.o(i.DCDC_SetMinPowerConfig) refers to fsl_assert.o(i.__aeabi_assert) for __aeabi_assert
    fsl_common.o(i.SDK_Free) refers to malloc2.o(i.__free$2region) for free
    fsl_common.o(i.SDK_Malloc) refers to malloc2.o(i.__malloc$2region) for malloc
    fsl_lpspi.o(i.CLOCK_ControlGate) refers to fsl_assert.o(i.__aeabi_assert) for __aeabi_assert
    fsl_lpspi.o(i.CLOCK_EnableClock) refers to fsl_lpspi.o(i.CLOCK_ControlGate) for CLOCK_ControlGate
    fsl_lpspi.o(i.LPSPI1_DriverIRQHandler) refers to fsl_assert.o(i.__aeabi_assert) for __aeabi_assert
    fsl_lpspi.o(i.LPSPI1_DriverIRQHandler) refers to fsl_lpspi.o(i.LPSPI_CommonIRQHandler) for LPSPI_CommonIRQHandler
    fsl_lpspi.o(i.LPSPI1_DriverIRQHandler) refers to fsl_lpspi.o(.bss) for s_lpspiHandle
    fsl_lpspi.o(i.LPSPI2_DriverIRQHandler) refers to fsl_assert.o(i.__aeabi_assert) for __aeabi_assert
    fsl_lpspi.o(i.LPSPI2_DriverIRQHandler) refers to fsl_lpspi.o(i.LPSPI_CommonIRQHandler) for LPSPI_CommonIRQHandler
    fsl_lpspi.o(i.LPSPI2_DriverIRQHandler) refers to fsl_lpspi.o(.bss) for s_lpspiHandle
    fsl_lpspi.o(i.LPSPI3_DriverIRQHandler) refers to fsl_assert.o(i.__aeabi_assert) for __aeabi_assert
    fsl_lpspi.o(i.LPSPI3_DriverIRQHandler) refers to fsl_lpspi.o(i.LPSPI_CommonIRQHandler) for LPSPI_CommonIRQHandler
    fsl_lpspi.o(i.LPSPI3_DriverIRQHandler) refers to fsl_lpspi.o(.bss) for s_lpspiHandle
    fsl_lpspi.o(i.LPSPI4_DriverIRQHandler) refers to fsl_assert.o(i.__aeabi_assert) for __aeabi_assert
    fsl_lpspi.o(i.LPSPI4_DriverIRQHandler) refers to fsl_lpspi.o(i.LPSPI_CommonIRQHandler) for LPSPI_CommonIRQHandler
    fsl_lpspi.o(i.LPSPI4_DriverIRQHandler) refers to fsl_lpspi.o(.bss) for s_lpspiHandle
    fsl_lpspi.o(i.LPSPI_CheckTransferArgument) refers to fsl_assert.o(i.__aeabi_assert) for __aeabi_assert
    fsl_lpspi.o(i.LPSPI_CombineWriteData) refers to fsl_assert.o(i.__aeabi_assert) for __aeabi_assert
    fsl_lpspi.o(i.LPSPI_CommonIRQHandler) refers to fsl_lpspi.o(.data) for s_lpspiMasterIsr
    fsl_lpspi.o(i.LPSPI_Deinit) refers to fsl_lpspi.o(i.LPSPI_Reset) for LPSPI_Reset
    fsl_lpspi.o(i.LPSPI_Deinit) refers to fsl_lpspi.o(i.LPSPI_GetInstance) for LPSPI_GetInstance
    fsl_lpspi.o(i.LPSPI_Deinit) refers to fsl_lpspi.o(i.CLOCK_ControlGate) for CLOCK_ControlGate
    fsl_lpspi.o(i.LPSPI_Deinit) refers to fsl_lpspi.o(.constdata) for s_lpspiClocks
    fsl_lpspi.o(i.LPSPI_GetInstance) refers to fsl_assert.o(i.__aeabi_assert) for __aeabi_assert
    fsl_lpspi.o(i.LPSPI_GetInstance) refers to fsl_lpspi.o(.constdata) for s_lpspiBases
    fsl_lpspi.o(i.LPSPI_MasterGetDefaultConfig) refers to fsl_assert.o(i.__aeabi_assert) for __aeabi_assert
    fsl_lpspi.o(i.LPSPI_MasterInit) refers to fsl_assert.o(i.__aeabi_assert) for __aeabi_assert
    fsl_lpspi.o(i.LPSPI_MasterInit) refers to fsl_lpspi.o(i.LPSPI_GetInstance) for LPSPI_GetInstance
    fsl_lpspi.o(i.LPSPI_MasterInit) refers to fsl_lpspi.o(i.CLOCK_EnableClock) for CLOCK_EnableClock
    fsl_lpspi.o(i.LPSPI_MasterInit) refers to fsl_lpspi.o(i.LPSPI_Reset) for LPSPI_Reset
    fsl_lpspi.o(i.LPSPI_MasterInit) refers to fsl_lpspi.o(i.LPSPI_SetMasterSlaveMode) for LPSPI_SetMasterSlaveMode
    fsl_lpspi.o(i.LPSPI_MasterInit) refers to fsl_lpspi.o(i.LPSPI_SetOnePcsPolarity) for LPSPI_SetOnePcsPolarity
    fsl_lpspi.o(i.LPSPI_MasterInit) refers to fsl_lpspi.o(i.LPSPI_MasterSetBaudRate) for LPSPI_MasterSetBaudRate
    fsl_lpspi.o(i.LPSPI_MasterInit) refers to fsl_lpspi.o(i.LPSPI_SetFifoWatermarks) for LPSPI_SetFifoWatermarks
    fsl_lpspi.o(i.LPSPI_MasterInit) refers to fsl_lpspi.o(i.LPSPI_Enable) for LPSPI_Enable
    fsl_lpspi.o(i.LPSPI_MasterInit) refers to fsl_lpspi.o(i.LPSPI_MasterSetDelayTimes) for LPSPI_MasterSetDelayTimes
    fsl_lpspi.o(i.LPSPI_MasterInit) refers to fsl_lpspi.o(i.LPSPI_SetDummyData) for LPSPI_SetDummyData
    fsl_lpspi.o(i.LPSPI_MasterInit) refers to fsl_lpspi.o(.constdata) for s_lpspiClocks
    fsl_lpspi.o(i.LPSPI_MasterSetBaudRate) refers to fsl_assert.o(i.__aeabi_assert) for __aeabi_assert
    fsl_lpspi.o(i.LPSPI_MasterSetBaudRate) refers to fsl_lpspi.o(.constdata) for s_baudratePrescaler
    fsl_lpspi.o(i.LPSPI_MasterSetDelayScaler) refers to fsl_assert.o(i.__aeabi_assert) for __aeabi_assert
    fsl_lpspi.o(i.LPSPI_MasterSetDelayTimes) refers to uldiv.o(.text) for __aeabi_uldivmod
    fsl_lpspi.o(i.LPSPI_MasterSetDelayTimes) refers to fsl_lpspi.o(i.LPSPI_MasterSetDelayScaler) for LPSPI_MasterSetDelayScaler
    fsl_lpspi.o(i.LPSPI_MasterSetDelayTimes) refers to fsl_lpspi.o(.constdata) for s_baudratePrescaler
    fsl_lpspi.o(i.LPSPI_MasterTransferAbort) refers to fsl_assert.o(i.__aeabi_assert) for __aeabi_assert
    fsl_lpspi.o(i.LPSPI_MasterTransferAbort) refers to fsl_lpspi.o(i.LPSPI_DisableInterrupts) for LPSPI_DisableInterrupts
    fsl_lpspi.o(i.LPSPI_MasterTransferAbort) refers to fsl_lpspi.o(i.LPSPI_Reset) for LPSPI_Reset
    fsl_lpspi.o(i.LPSPI_MasterTransferBlocking) refers to fsl_assert.o(i.__aeabi_assert) for __aeabi_assert
    fsl_lpspi.o(i.LPSPI_MasterTransferBlocking) refers to fsl_lpspi.o(i.LPSPI_GetInstance) for LPSPI_GetInstance
    fsl_lpspi.o(i.LPSPI_MasterTransferBlocking) refers to fsl_lpspi.o(i.LPSPI_CheckTransferArgument) for LPSPI_CheckTransferArgument
    fsl_lpspi.o(i.LPSPI_MasterTransferBlocking) refers to fsl_lpspi.o(i.LPSPI_GetStatusFlags) for LPSPI_GetStatusFlags
    fsl_lpspi.o(i.LPSPI_MasterTransferBlocking) refers to fsl_lpspi.o(i.LPSPI_GetRxFifoSize) for LPSPI_GetRxFifoSize
    fsl_lpspi.o(i.LPSPI_MasterTransferBlocking) refers to fsl_lpspi.o(i.LPSPI_FlushFifo) for LPSPI_FlushFifo
    fsl_lpspi.o(i.LPSPI_MasterTransferBlocking) refers to fsl_lpspi.o(i.LPSPI_ClearStatusFlags) for LPSPI_ClearStatusFlags
    fsl_lpspi.o(i.LPSPI_MasterTransferBlocking) refers to fsl_lpspi.o(i.LPSPI_Enable) for LPSPI_Enable
    fsl_lpspi.o(i.LPSPI_MasterTransferBlocking) refers to fsl_lpspi.o(i.LPSPI_GetTxFifoCount) for LPSPI_GetTxFifoCount
    fsl_lpspi.o(i.LPSPI_MasterTransferBlocking) refers to fsl_lpspi.o(i.LPSPI_CombineWriteData) for LPSPI_CombineWriteData
    fsl_lpspi.o(i.LPSPI_MasterTransferBlocking) refers to fsl_lpspi.o(i.LPSPI_WriteData) for LPSPI_WriteData
    fsl_lpspi.o(i.LPSPI_MasterTransferBlocking) refers to fsl_lpspi.o(i.LPSPI_ReadData) for LPSPI_ReadData
    fsl_lpspi.o(i.LPSPI_MasterTransferBlocking) refers to fsl_lpspi.o(i.LPSPI_SeparateReadData) for LPSPI_SeparateReadData
    fsl_lpspi.o(i.LPSPI_MasterTransferBlocking) refers to fsl_lpspi.o(i.LPSPI_GetRxFifoCount) for LPSPI_GetRxFifoCount
    fsl_lpspi.o(i.LPSPI_MasterTransferBlocking) refers to fsl_lpspi.o(.data) for g_lpspiDummyData
    fsl_lpspi.o(i.LPSPI_MasterTransferComplete) refers to fsl_assert.o(i.__aeabi_assert) for __aeabi_assert
    fsl_lpspi.o(i.LPSPI_MasterTransferComplete) refers to fsl_lpspi.o(i.LPSPI_DisableInterrupts) for LPSPI_DisableInterrupts
    fsl_lpspi.o(i.LPSPI_MasterTransferCreateHandle) refers to fsl_assert.o(i.__aeabi_assert) for __aeabi_assert
    fsl_lpspi.o(i.LPSPI_MasterTransferCreateHandle) refers to memseta.o(.text) for __aeabi_memclr4
    fsl_lpspi.o(i.LPSPI_MasterTransferCreateHandle) refers to fsl_lpspi.o(i.LPSPI_GetInstance) for LPSPI_GetInstance
    fsl_lpspi.o(i.LPSPI_MasterTransferCreateHandle) refers to fsl_lpspi.o(.bss) for s_lpspiHandle
    fsl_lpspi.o(i.LPSPI_MasterTransferCreateHandle) refers to fsl_lpspi.o(i.LPSPI_MasterTransferHandleIRQ) for LPSPI_MasterTransferHandleIRQ
    fsl_lpspi.o(i.LPSPI_MasterTransferCreateHandle) refers to fsl_lpspi.o(.data) for s_lpspiMasterIsr
    fsl_lpspi.o(i.LPSPI_MasterTransferFillUpTxFifo) refers to fsl_assert.o(i.__aeabi_assert) for __aeabi_assert
    fsl_lpspi.o(i.LPSPI_MasterTransferFillUpTxFifo) refers to fsl_lpspi.o(i.LPSPI_CombineWriteData) for LPSPI_CombineWriteData
    fsl_lpspi.o(i.LPSPI_MasterTransferFillUpTxFifo) refers to fsl_lpspi.o(i.LPSPI_WriteData) for LPSPI_WriteData
    fsl_lpspi.o(i.LPSPI_MasterTransferFillUpTxFifo) refers to fsl_lpspi.o(i.LPSPI_GetTxFifoCount) for LPSPI_GetTxFifoCount
    fsl_lpspi.o(i.LPSPI_MasterTransferGetCount) refers to fsl_assert.o(i.__aeabi_assert) for __aeabi_assert
    fsl_lpspi.o(i.LPSPI_MasterTransferHandleIRQ) refers to fsl_assert.o(i.__aeabi_assert) for __aeabi_assert
    fsl_lpspi.o(i.LPSPI_MasterTransferHandleIRQ) refers to fsl_lpspi.o(i.LPSPI_DisableInterrupts) for LPSPI_DisableInterrupts
    fsl_lpspi.o(i.LPSPI_MasterTransferHandleIRQ) refers to fsl_lpspi.o(i.LPSPI_ReadData) for LPSPI_ReadData
    fsl_lpspi.o(i.LPSPI_MasterTransferHandleIRQ) refers to fsl_lpspi.o(i.LPSPI_SeparateReadData) for LPSPI_SeparateReadData
    fsl_lpspi.o(i.LPSPI_MasterTransferHandleIRQ) refers to fsl_lpspi.o(i.LPSPI_GetRxFifoCount) for LPSPI_GetRxFifoCount
    fsl_lpspi.o(i.LPSPI_MasterTransferHandleIRQ) refers to fsl_lpspi.o(i.LPSPI_EnableInterrupts) for LPSPI_EnableInterrupts
    fsl_lpspi.o(i.LPSPI_MasterTransferHandleIRQ) refers to fsl_lpspi.o(i.LPSPI_MasterTransferFillUpTxFifo) for LPSPI_MasterTransferFillUpTxFifo
    fsl_lpspi.o(i.LPSPI_MasterTransferHandleIRQ) refers to fsl_lpspi.o(i.LPSPI_GetTxFifoCount) for LPSPI_GetTxFifoCount
    fsl_lpspi.o(i.LPSPI_MasterTransferHandleIRQ) refers to fsl_lpspi.o(i.LPSPI_GetStatusFlags) for LPSPI_GetStatusFlags
    fsl_lpspi.o(i.LPSPI_MasterTransferHandleIRQ) refers to fsl_lpspi.o(i.LPSPI_MasterTransferComplete) for LPSPI_MasterTransferComplete
    fsl_lpspi.o(i.LPSPI_MasterTransferNonBlocking) refers to fsl_assert.o(i.__aeabi_assert) for __aeabi_assert
    fsl_lpspi.o(i.LPSPI_MasterTransferNonBlocking) refers to fsl_lpspi.o(i.LPSPI_GetInstance) for LPSPI_GetInstance
    fsl_lpspi.o(i.LPSPI_MasterTransferNonBlocking) refers to fsl_lpspi.o(i.LPSPI_CheckTransferArgument) for LPSPI_CheckTransferArgument
    fsl_lpspi.o(i.LPSPI_MasterTransferNonBlocking) refers to fsl_lpspi.o(i.LPSPI_GetRxFifoSize) for LPSPI_GetRxFifoSize
    fsl_lpspi.o(i.LPSPI_MasterTransferNonBlocking) refers to fsl_lpspi.o(i.LPSPI_SetFifoWatermarks) for LPSPI_SetFifoWatermarks
    fsl_lpspi.o(i.LPSPI_MasterTransferNonBlocking) refers to fsl_lpspi.o(i.LPSPI_Enable) for LPSPI_Enable
    fsl_lpspi.o(i.LPSPI_MasterTransferNonBlocking) refers to fsl_lpspi.o(i.LPSPI_FlushFifo) for LPSPI_FlushFifo
    fsl_lpspi.o(i.LPSPI_MasterTransferNonBlocking) refers to fsl_lpspi.o(i.LPSPI_ClearStatusFlags) for LPSPI_ClearStatusFlags
    fsl_lpspi.o(i.LPSPI_MasterTransferNonBlocking) refers to fsl_lpspi.o(i.LPSPI_DisableInterrupts) for LPSPI_DisableInterrupts
    fsl_lpspi.o(i.LPSPI_MasterTransferNonBlocking) refers to fsl_lpspi.o(i.EnableIRQ) for EnableIRQ
    fsl_lpspi.o(i.LPSPI_MasterTransferNonBlocking) refers to fsl_lpspi.o(i.LPSPI_GetTxFifoCount) for LPSPI_GetTxFifoCount
    fsl_lpspi.o(i.LPSPI_MasterTransferNonBlocking) refers to fsl_lpspi.o(i.LPSPI_MasterTransferFillUpTxFifo) for LPSPI_MasterTransferFillUpTxFifo
    fsl_lpspi.o(i.LPSPI_MasterTransferNonBlocking) refers to fsl_lpspi.o(i.LPSPI_EnableInterrupts) for LPSPI_EnableInterrupts
    fsl_lpspi.o(i.LPSPI_MasterTransferNonBlocking) refers to fsl_lpspi.o(.data) for g_lpspiDummyData
    fsl_lpspi.o(i.LPSPI_MasterTransferNonBlocking) refers to fsl_lpspi.o(.constdata) for s_lpspiIRQ
    fsl_lpspi.o(i.LPSPI_SeparateReadData) refers to fsl_assert.o(i.__aeabi_assert) for __aeabi_assert
    fsl_lpspi.o(i.LPSPI_SetDummyData) refers to fsl_lpspi.o(i.LPSPI_GetInstance) for LPSPI_GetInstance
    fsl_lpspi.o(i.LPSPI_SetDummyData) refers to fsl_lpspi.o(.data) for g_lpspiDummyData
    fsl_lpspi.o(i.LPSPI_SlaveGetDefaultConfig) refers to fsl_assert.o(i.__aeabi_assert) for __aeabi_assert
    fsl_lpspi.o(i.LPSPI_SlaveInit) refers to fsl_assert.o(i.__aeabi_assert) for __aeabi_assert
    fsl_lpspi.o(i.LPSPI_SlaveInit) refers to fsl_lpspi.o(i.LPSPI_GetInstance) for LPSPI_GetInstance
    fsl_lpspi.o(i.LPSPI_SlaveInit) refers to fsl_lpspi.o(i.CLOCK_EnableClock) for CLOCK_EnableClock
    fsl_lpspi.o(i.LPSPI_SlaveInit) refers to fsl_lpspi.o(i.LPSPI_Reset) for LPSPI_Reset
    fsl_lpspi.o(i.LPSPI_SlaveInit) refers to fsl_lpspi.o(i.LPSPI_SetMasterSlaveMode) for LPSPI_SetMasterSlaveMode
    fsl_lpspi.o(i.LPSPI_SlaveInit) refers to fsl_lpspi.o(i.LPSPI_SetOnePcsPolarity) for LPSPI_SetOnePcsPolarity
    fsl_lpspi.o(i.LPSPI_SlaveInit) refers to fsl_lpspi.o(i.LPSPI_SetFifoWatermarks) for LPSPI_SetFifoWatermarks
    fsl_lpspi.o(i.LPSPI_SlaveInit) refers to fsl_lpspi.o(i.LPSPI_SetDummyData) for LPSPI_SetDummyData
    fsl_lpspi.o(i.LPSPI_SlaveInit) refers to fsl_lpspi.o(i.LPSPI_Enable) for LPSPI_Enable
    fsl_lpspi.o(i.LPSPI_SlaveInit) refers to fsl_lpspi.o(.constdata) for s_lpspiClocks
    fsl_lpspi.o(i.LPSPI_SlaveTransferAbort) refers to fsl_assert.o(i.__aeabi_assert) for __aeabi_assert
    fsl_lpspi.o(i.LPSPI_SlaveTransferAbort) refers to fsl_lpspi.o(i.LPSPI_DisableInterrupts) for LPSPI_DisableInterrupts
    fsl_lpspi.o(i.LPSPI_SlaveTransferAbort) refers to fsl_lpspi.o(i.LPSPI_Reset) for LPSPI_Reset
    fsl_lpspi.o(i.LPSPI_SlaveTransferComplete) refers to fsl_assert.o(i.__aeabi_assert) for __aeabi_assert
    fsl_lpspi.o(i.LPSPI_SlaveTransferComplete) refers to fsl_lpspi.o(i.LPSPI_DisableInterrupts) for LPSPI_DisableInterrupts
    fsl_lpspi.o(i.LPSPI_SlaveTransferCreateHandle) refers to fsl_assert.o(i.__aeabi_assert) for __aeabi_assert
    fsl_lpspi.o(i.LPSPI_SlaveTransferCreateHandle) refers to memseta.o(.text) for __aeabi_memclr4
    fsl_lpspi.o(i.LPSPI_SlaveTransferCreateHandle) refers to fsl_lpspi.o(i.LPSPI_GetInstance) for LPSPI_GetInstance
    fsl_lpspi.o(i.LPSPI_SlaveTransferCreateHandle) refers to fsl_lpspi.o(.bss) for s_lpspiHandle
    fsl_lpspi.o(i.LPSPI_SlaveTransferCreateHandle) refers to fsl_lpspi.o(i.LPSPI_SlaveTransferHandleIRQ) for LPSPI_SlaveTransferHandleIRQ
    fsl_lpspi.o(i.LPSPI_SlaveTransferCreateHandle) refers to fsl_lpspi.o(.data) for s_lpspiSlaveIsr
    fsl_lpspi.o(i.LPSPI_SlaveTransferFillUpTxFifo) refers to fsl_assert.o(i.__aeabi_assert) for __aeabi_assert
    fsl_lpspi.o(i.LPSPI_SlaveTransferFillUpTxFifo) refers to fsl_lpspi.o(i.LPSPI_CombineWriteData) for LPSPI_CombineWriteData
    fsl_lpspi.o(i.LPSPI_SlaveTransferFillUpTxFifo) refers to fsl_lpspi.o(i.LPSPI_WriteData) for LPSPI_WriteData
    fsl_lpspi.o(i.LPSPI_SlaveTransferFillUpTxFifo) refers to fsl_lpspi.o(i.LPSPI_GetTxFifoCount) for LPSPI_GetTxFifoCount
    fsl_lpspi.o(i.LPSPI_SlaveTransferGetCount) refers to fsl_assert.o(i.__aeabi_assert) for __aeabi_assert
    fsl_lpspi.o(i.LPSPI_SlaveTransferHandleIRQ) refers to fsl_assert.o(i.__aeabi_assert) for __aeabi_assert
    fsl_lpspi.o(i.LPSPI_SlaveTransferHandleIRQ) refers to fsl_lpspi.o(i.LPSPI_ReadData) for LPSPI_ReadData
    fsl_lpspi.o(i.LPSPI_SlaveTransferHandleIRQ) refers to fsl_lpspi.o(i.LPSPI_SeparateReadData) for LPSPI_SeparateReadData
    fsl_lpspi.o(i.LPSPI_SlaveTransferHandleIRQ) refers to fsl_lpspi.o(i.LPSPI_CombineWriteData) for LPSPI_CombineWriteData
    fsl_lpspi.o(i.LPSPI_SlaveTransferHandleIRQ) refers to fsl_lpspi.o(i.LPSPI_WriteData) for LPSPI_WriteData
    fsl_lpspi.o(i.LPSPI_SlaveTransferHandleIRQ) refers to fsl_lpspi.o(i.LPSPI_GetRxFifoCount) for LPSPI_GetRxFifoCount
    fsl_lpspi.o(i.LPSPI_SlaveTransferHandleIRQ) refers to fsl_lpspi.o(i.LPSPI_SlaveTransferFillUpTxFifo) for LPSPI_SlaveTransferFillUpTxFifo
    fsl_lpspi.o(i.LPSPI_SlaveTransferHandleIRQ) refers to fsl_lpspi.o(i.LPSPI_GetStatusFlags) for LPSPI_GetStatusFlags
    fsl_lpspi.o(i.LPSPI_SlaveTransferHandleIRQ) refers to fsl_lpspi.o(i.LPSPI_GetTxFifoCount) for LPSPI_GetTxFifoCount
    fsl_lpspi.o(i.LPSPI_SlaveTransferHandleIRQ) refers to fsl_lpspi.o(i.LPSPI_SlaveTransferComplete) for LPSPI_SlaveTransferComplete
    fsl_lpspi.o(i.LPSPI_SlaveTransferHandleIRQ) refers to fsl_lpspi.o(i.LPSPI_ClearStatusFlags) for LPSPI_ClearStatusFlags
    fsl_lpspi.o(i.LPSPI_SlaveTransferHandleIRQ) refers to fsl_lpspi.o(i.LPSPI_EnableInterrupts) for LPSPI_EnableInterrupts
    fsl_lpspi.o(i.LPSPI_SlaveTransferHandleIRQ) refers to fsl_lpspi.o(i.LPSPI_DisableInterrupts) for LPSPI_DisableInterrupts
    fsl_lpspi.o(i.LPSPI_SlaveTransferNonBlocking) refers to fsl_assert.o(i.__aeabi_assert) for __aeabi_assert
    fsl_lpspi.o(i.LPSPI_SlaveTransferNonBlocking) refers to fsl_lpspi.o(i.LPSPI_CheckTransferArgument) for LPSPI_CheckTransferArgument
    fsl_lpspi.o(i.LPSPI_SlaveTransferNonBlocking) refers to fsl_lpspi.o(i.LPSPI_GetRxFifoSize) for LPSPI_GetRxFifoSize
    fsl_lpspi.o(i.LPSPI_SlaveTransferNonBlocking) refers to fsl_lpspi.o(i.LPSPI_SetFifoWatermarks) for LPSPI_SetFifoWatermarks
    fsl_lpspi.o(i.LPSPI_SlaveTransferNonBlocking) refers to fsl_lpspi.o(i.LPSPI_Enable) for LPSPI_Enable
    fsl_lpspi.o(i.LPSPI_SlaveTransferNonBlocking) refers to fsl_lpspi.o(i.LPSPI_FlushFifo) for LPSPI_FlushFifo
    fsl_lpspi.o(i.LPSPI_SlaveTransferNonBlocking) refers to fsl_lpspi.o(i.LPSPI_ClearStatusFlags) for LPSPI_ClearStatusFlags
    fsl_lpspi.o(i.LPSPI_SlaveTransferNonBlocking) refers to fsl_lpspi.o(i.LPSPI_DisableInterrupts) for LPSPI_DisableInterrupts
    fsl_lpspi.o(i.LPSPI_SlaveTransferNonBlocking) refers to fsl_lpspi.o(i.LPSPI_GetInstance) for LPSPI_GetInstance
    fsl_lpspi.o(i.LPSPI_SlaveTransferNonBlocking) refers to fsl_lpspi.o(i.EnableIRQ) for EnableIRQ
    fsl_lpspi.o(i.LPSPI_SlaveTransferNonBlocking) refers to fsl_lpspi.o(i.LPSPI_GetTxFifoCount) for LPSPI_GetTxFifoCount
    fsl_lpspi.o(i.LPSPI_SlaveTransferNonBlocking) refers to fsl_lpspi.o(i.LPSPI_SlaveTransferFillUpTxFifo) for LPSPI_SlaveTransferFillUpTxFifo
    fsl_lpspi.o(i.LPSPI_SlaveTransferNonBlocking) refers to fsl_lpspi.o(i.LPSPI_EnableInterrupts) for LPSPI_EnableInterrupts
    fsl_lpspi.o(i.LPSPI_SlaveTransferNonBlocking) refers to fsl_lpspi.o(.constdata) for s_lpspiIRQ
    fsl_lpuart.o(i.CLOCK_ControlGate) refers to fsl_assert.o(i.__aeabi_assert) for __aeabi_assert
    fsl_lpuart.o(i.LPUART1_DriverIRQHandler) refers to fsl_lpuart.o(.bss) for s_lpuartHandle
    fsl_lpuart.o(i.LPUART1_DriverIRQHandler) refers to fsl_lpuart.o(.data) for s_lpuartIsr
    fsl_lpuart.o(i.LPUART2_DriverIRQHandler) refers to fsl_lpuart.o(.bss) for s_lpuartHandle
    fsl_lpuart.o(i.LPUART2_DriverIRQHandler) refers to fsl_lpuart.o(.data) for s_lpuartIsr
    fsl_lpuart.o(i.LPUART3_DriverIRQHandler) refers to fsl_lpuart.o(.bss) for s_lpuartHandle
    fsl_lpuart.o(i.LPUART3_DriverIRQHandler) refers to fsl_lpuart.o(.data) for s_lpuartIsr
    fsl_lpuart.o(i.LPUART4_DriverIRQHandler) refers to fsl_lpuart.o(.bss) for s_lpuartHandle
    fsl_lpuart.o(i.LPUART4_DriverIRQHandler) refers to fsl_lpuart.o(.data) for s_lpuartIsr
    fsl_lpuart.o(i.LPUART5_DriverIRQHandler) refers to fsl_lpuart.o(.bss) for s_lpuartHandle
    fsl_lpuart.o(i.LPUART5_DriverIRQHandler) refers to fsl_lpuart.o(.data) for s_lpuartIsr
    fsl_lpuart.o(i.LPUART6_DriverIRQHandler) refers to fsl_lpuart.o(.bss) for s_lpuartHandle
    fsl_lpuart.o(i.LPUART6_DriverIRQHandler) refers to fsl_lpuart.o(.data) for s_lpuartIsr
    fsl_lpuart.o(i.LPUART7_DriverIRQHandler) refers to fsl_lpuart.o(.bss) for s_lpuartHandle
    fsl_lpuart.o(i.LPUART7_DriverIRQHandler) refers to fsl_lpuart.o(.data) for s_lpuartIsr
    fsl_lpuart.o(i.LPUART8_DriverIRQHandler) refers to fsl_lpuart.o(.bss) for s_lpuartHandle
    fsl_lpuart.o(i.LPUART8_DriverIRQHandler) refers to fsl_lpuart.o(.data) for s_lpuartIsr
    fsl_lpuart.o(i.LPUART_ClearStatusFlags) refers to fsl_lpuart.o(i.LPUART_GetStatusFlags) for LPUART_GetStatusFlags
    fsl_lpuart.o(i.LPUART_Deinit) refers to fsl_lpuart.o(i.LPUART_GetInstance) for LPUART_GetInstance
    fsl_lpuart.o(i.LPUART_Deinit) refers to fsl_lpuart.o(i.CLOCK_ControlGate) for CLOCK_ControlGate
    fsl_lpuart.o(i.LPUART_Deinit) refers to fsl_lpuart.o(.constdata) for s_lpuartClock
    fsl_lpuart.o(i.LPUART_GetDefaultConfig) refers to fsl_assert.o(i.__aeabi_assert) for __aeabi_assert
    fsl_lpuart.o(i.LPUART_GetInstance) refers to fsl_assert.o(i.__aeabi_assert) for __aeabi_assert
    fsl_lpuart.o(i.LPUART_GetInstance) refers to fsl_lpuart.o(.constdata) for s_lpuartBases
    fsl_lpuart.o(i.LPUART_Init) refers to fsl_assert.o(i.__aeabi_assert) for __aeabi_assert
    fsl_lpuart.o(i.LPUART_Init) refers to fsl_lpuart.o(i.LPUART_GetInstance) for LPUART_GetInstance
    fsl_lpuart.o(i.LPUART_Init) refers to fsl_lpuart.o(i.CLOCK_ControlGate) for CLOCK_ControlGate
    fsl_lpuart.o(i.LPUART_Init) refers to fsl_lpuart.o(.constdata) for s_lpuartClock
    fsl_lpuart.o(i.LPUART_ReadBlocking) refers to fsl_assert.o(i.__aeabi_assert) for __aeabi_assert
    fsl_lpuart.o(i.LPUART_ReadBlocking) refers to fsl_lpuart.o(i.LPUART_GetStatusFlags) for LPUART_GetStatusFlags
    fsl_lpuart.o(i.LPUART_ReadBlocking) refers to fsl_lpuart.o(i.LPUART_ClearStatusFlags) for LPUART_ClearStatusFlags
    fsl_lpuart.o(i.LPUART_ReadNonBlocking) refers to fsl_assert.o(i.__aeabi_assert) for __aeabi_assert
    fsl_lpuart.o(i.LPUART_SetBaudRate) refers to fsl_assert.o(i.__aeabi_assert) for __aeabi_assert
    fsl_lpuart.o(i.LPUART_TransferAbortReceive) refers to fsl_assert.o(i.__aeabi_assert) for __aeabi_assert
    fsl_lpuart.o(i.LPUART_TransferAbortReceive) refers to fsl_lpuart.o(i.LPUART_DisableInterrupts) for LPUART_DisableInterrupts
    fsl_lpuart.o(i.LPUART_TransferAbortSend) refers to fsl_assert.o(i.__aeabi_assert) for __aeabi_assert
    fsl_lpuart.o(i.LPUART_TransferAbortSend) refers to fsl_lpuart.o(i.LPUART_DisableInterrupts) for LPUART_DisableInterrupts
    fsl_lpuart.o(i.LPUART_TransferCreateHandle) refers to fsl_assert.o(i.__aeabi_assert) for __aeabi_assert
    fsl_lpuart.o(i.LPUART_TransferCreateHandle) refers to memseta.o(.text) for __aeabi_memclr4
    fsl_lpuart.o(i.LPUART_TransferCreateHandle) refers to fsl_lpuart.o(i.LPUART_GetInstance) for LPUART_GetInstance
    fsl_lpuart.o(i.LPUART_TransferCreateHandle) refers to fsl_lpuart.o(.bss) for s_lpuartHandle
    fsl_lpuart.o(i.LPUART_TransferCreateHandle) refers to fsl_lpuart.o(i.LPUART_TransferHandleIRQ) for LPUART_TransferHandleIRQ
    fsl_lpuart.o(i.LPUART_TransferCreateHandle) refers to fsl_lpuart.o(.data) for s_lpuartIsr
    fsl_lpuart.o(i.LPUART_TransferCreateHandle) refers to fsl_lpuart.o(.constdata) for s_lpuartIRQ
    fsl_lpuart.o(i.LPUART_TransferGetReceiveCount) refers to fsl_assert.o(i.__aeabi_assert) for __aeabi_assert
    fsl_lpuart.o(i.LPUART_TransferGetRxRingBufferLength) refers to fsl_assert.o(i.__aeabi_assert) for __aeabi_assert
    fsl_lpuart.o(i.LPUART_TransferGetSendCount) refers to fsl_assert.o(i.__aeabi_assert) for __aeabi_assert
    fsl_lpuart.o(i.LPUART_TransferHandleIRQ) refers to fsl_assert.o(i.__aeabi_assert) for __aeabi_assert
    fsl_lpuart.o(i.LPUART_TransferHandleIRQ) refers to fsl_lpuart.o(i.LPUART_ReadNonBlocking) for LPUART_ReadNonBlocking
    fsl_lpuart.o(i.LPUART_TransferHandleIRQ) refers to fsl_lpuart.o(i.LPUART_DisableInterrupts) for LPUART_DisableInterrupts
    fsl_lpuart.o(i.LPUART_TransferHandleIRQ) refers to fsl_lpuart.o(i.LPUART_TransferIsRxRingBufferFull) for LPUART_TransferIsRxRingBufferFull
    fsl_lpuart.o(i.LPUART_TransferHandleIRQ) refers to fsl_lpuart.o(i.LPUART_WriteNonBlocking) for LPUART_WriteNonBlocking
    fsl_lpuart.o(i.LPUART_TransferIsRxRingBufferFull) refers to fsl_assert.o(i.__aeabi_assert) for __aeabi_assert
    fsl_lpuart.o(i.LPUART_TransferIsRxRingBufferFull) refers to fsl_lpuart.o(i.LPUART_TransferGetRxRingBufferLength) for LPUART_TransferGetRxRingBufferLength
    fsl_lpuart.o(i.LPUART_TransferReceiveNonBlocking) refers to fsl_assert.o(i.__aeabi_assert) for __aeabi_assert
    fsl_lpuart.o(i.LPUART_TransferReceiveNonBlocking) refers to fsl_lpuart.o(i.LPUART_DisableInterrupts) for LPUART_DisableInterrupts
    fsl_lpuart.o(i.LPUART_TransferReceiveNonBlocking) refers to fsl_lpuart.o(i.LPUART_TransferGetRxRingBufferLength) for LPUART_TransferGetRxRingBufferLength
    fsl_lpuart.o(i.LPUART_TransferReceiveNonBlocking) refers to fsl_lpuart.o(i.LPUART_EnableInterrupts) for LPUART_EnableInterrupts
    fsl_lpuart.o(i.LPUART_TransferSendNonBlocking) refers to fsl_assert.o(i.__aeabi_assert) for __aeabi_assert
    fsl_lpuart.o(i.LPUART_TransferSendNonBlocking) refers to fsl_lpuart.o(i.LPUART_EnableInterrupts) for LPUART_EnableInterrupts
    fsl_lpuart.o(i.LPUART_TransferStartRingBuffer) refers to fsl_assert.o(i.__aeabi_assert) for __aeabi_assert
    fsl_lpuart.o(i.LPUART_TransferStartRingBuffer) refers to fsl_lpuart.o(i.LPUART_EnableInterrupts) for LPUART_EnableInterrupts
    fsl_lpuart.o(i.LPUART_TransferStopRingBuffer) refers to fsl_assert.o(i.__aeabi_assert) for __aeabi_assert
    fsl_lpuart.o(i.LPUART_TransferStopRingBuffer) refers to fsl_lpuart.o(i.LPUART_DisableInterrupts) for LPUART_DisableInterrupts
    fsl_lpuart.o(i.LPUART_WriteBlocking) refers to fsl_assert.o(i.__aeabi_assert) for __aeabi_assert
    fsl_lpuart.o(i.LPUART_WriteNonBlocking) refers to fsl_assert.o(i.__aeabi_assert) for __aeabi_assert
    fsl_lpi2c.o(i.CLOCK_ControlGate) refers to fsl_assert.o(i.__aeabi_assert) for __aeabi_assert
    fsl_lpi2c.o(i.CLOCK_DisableClock) refers to fsl_lpi2c.o(i.CLOCK_ControlGate) for CLOCK_ControlGate
    fsl_lpi2c.o(i.CLOCK_EnableClock) refers to fsl_lpi2c.o(i.CLOCK_ControlGate) for CLOCK_ControlGate
    fsl_lpi2c.o(i.LPI2C1_DriverIRQHandler) refers to fsl_lpi2c.o(i.LPI2C_CommonIRQHandler) for LPI2C_CommonIRQHandler
    fsl_lpi2c.o(i.LPI2C2_DriverIRQHandler) refers to fsl_lpi2c.o(i.LPI2C_CommonIRQHandler) for LPI2C_CommonIRQHandler
    fsl_lpi2c.o(i.LPI2C3_DriverIRQHandler) refers to fsl_lpi2c.o(i.LPI2C_CommonIRQHandler) for LPI2C_CommonIRQHandler
    fsl_lpi2c.o(i.LPI2C4_DriverIRQHandler) refers to fsl_lpi2c.o(i.LPI2C_CommonIRQHandler) for LPI2C_CommonIRQHandler
    fsl_lpi2c.o(i.LPI2C_CheckForBusyBus) refers to fsl_lpi2c.o(i.LPI2C_MasterGetStatusFlags) for LPI2C_MasterGetStatusFlags
    fsl_lpi2c.o(i.LPI2C_CommonIRQHandler) refers to fsl_lpi2c.o(.data) for s_lpi2cMasterIsr
    fsl_lpi2c.o(i.LPI2C_CommonIRQHandler) refers to fsl_lpi2c.o(.bss) for s_lpi2cMasterHandle
    fsl_lpi2c.o(i.LPI2C_GetCyclesForWidth) refers to fsl_assert.o(i.__aeabi_assert) for __aeabi_assert
    fsl_lpi2c.o(i.LPI2C_GetInstance) refers to fsl_assert.o(i.__aeabi_assert) for __aeabi_assert
    fsl_lpi2c.o(i.LPI2C_GetInstance) refers to fsl_lpi2c.o(.constdata) for kLpi2cBases
    fsl_lpi2c.o(i.LPI2C_MasterCheckAndClearError) refers to fsl_assert.o(i.__aeabi_assert) for __aeabi_assert
    fsl_lpi2c.o(i.LPI2C_MasterCheckAndClearError) refers to fsl_lpi2c.o(i.LPI2C_MasterClearStatusFlags) for LPI2C_MasterClearStatusFlags
    fsl_lpi2c.o(i.LPI2C_MasterConfigureDataMatch) refers to fsl_lpi2c.o(i.LPI2C_MasterEnable) for LPI2C_MasterEnable
    fsl_lpi2c.o(i.LPI2C_MasterDeinit) refers to fsl_lpi2c.o(i.LPI2C_MasterReset) for LPI2C_MasterReset
    fsl_lpi2c.o(i.LPI2C_MasterDeinit) refers to fsl_lpi2c.o(i.LPI2C_GetInstance) for LPI2C_GetInstance
    fsl_lpi2c.o(i.LPI2C_MasterDeinit) refers to fsl_lpi2c.o(i.CLOCK_DisableClock) for CLOCK_DisableClock
    fsl_lpi2c.o(i.LPI2C_MasterDeinit) refers to fsl_lpi2c.o(.constdata) for kLpi2cClocks
    fsl_lpi2c.o(i.LPI2C_MasterInit) refers to fsl_lpi2c.o(i.LPI2C_GetInstance) for LPI2C_GetInstance
    fsl_lpi2c.o(i.LPI2C_MasterInit) refers to fsl_lpi2c.o(i.CLOCK_EnableClock) for CLOCK_EnableClock
    fsl_lpi2c.o(i.LPI2C_MasterInit) refers to fsl_lpi2c.o(i.LPI2C_MasterReset) for LPI2C_MasterReset
    fsl_lpi2c.o(i.LPI2C_MasterInit) refers to fsl_lpi2c.o(i.LPI2C_MasterSetBaudRate) for LPI2C_MasterSetBaudRate
    fsl_lpi2c.o(i.LPI2C_MasterInit) refers to fsl_lpi2c.o(i.LPI2C_GetCyclesForWidth) for LPI2C_GetCyclesForWidth
    fsl_lpi2c.o(i.LPI2C_MasterInit) refers to fsl_lpi2c.o(i.LPI2C_MasterEnable) for LPI2C_MasterEnable
    fsl_lpi2c.o(i.LPI2C_MasterInit) refers to fsl_lpi2c.o(.constdata) for kLpi2cClocks
    fsl_lpi2c.o(i.LPI2C_MasterReceive) refers to fsl_assert.o(i.__aeabi_assert) for __aeabi_assert
    fsl_lpi2c.o(i.LPI2C_MasterReceive) refers to fsl_lpi2c.o(i.LPI2C_MasterWaitForTxReady) for LPI2C_MasterWaitForTxReady
    fsl_lpi2c.o(i.LPI2C_MasterReceive) refers to fsl_lpi2c.o(i.LPI2C_MasterGetStatusFlags) for LPI2C_MasterGetStatusFlags
    fsl_lpi2c.o(i.LPI2C_MasterReceive) refers to fsl_lpi2c.o(i.LPI2C_MasterCheckAndClearError) for LPI2C_MasterCheckAndClearError
    fsl_lpi2c.o(i.LPI2C_MasterSend) refers to fsl_assert.o(i.__aeabi_assert) for __aeabi_assert
    fsl_lpi2c.o(i.LPI2C_MasterSend) refers to fsl_lpi2c.o(i.LPI2C_MasterWaitForTxReady) for LPI2C_MasterWaitForTxReady
    fsl_lpi2c.o(i.LPI2C_MasterSetBaudRate) refers to fsl_lpi2c.o(i.LPI2C_MasterEnable) for LPI2C_MasterEnable
    fsl_lpi2c.o(i.LPI2C_MasterStart) refers to fsl_lpi2c.o(i.LPI2C_CheckForBusyBus) for LPI2C_CheckForBusyBus
    fsl_lpi2c.o(i.LPI2C_MasterStart) refers to fsl_lpi2c.o(i.LPI2C_MasterClearStatusFlags) for LPI2C_MasterClearStatusFlags
    fsl_lpi2c.o(i.LPI2C_MasterStart) refers to fsl_lpi2c.o(i.LPI2C_MasterWaitForTxReady) for LPI2C_MasterWaitForTxReady
    fsl_lpi2c.o(i.LPI2C_MasterStop) refers to fsl_lpi2c.o(i.LPI2C_MasterWaitForTxReady) for LPI2C_MasterWaitForTxReady
    fsl_lpi2c.o(i.LPI2C_MasterStop) refers to fsl_lpi2c.o(i.LPI2C_MasterGetStatusFlags) for LPI2C_MasterGetStatusFlags
    fsl_lpi2c.o(i.LPI2C_MasterStop) refers to fsl_lpi2c.o(i.LPI2C_MasterCheckAndClearError) for LPI2C_MasterCheckAndClearError
    fsl_lpi2c.o(i.LPI2C_MasterStop) refers to fsl_lpi2c.o(i.LPI2C_MasterClearStatusFlags) for LPI2C_MasterClearStatusFlags
    fsl_lpi2c.o(i.LPI2C_MasterTransferAbort) refers to fsl_lpi2c.o(i.LPI2C_MasterDisableInterrupts) for LPI2C_MasterDisableInterrupts
    fsl_lpi2c.o(i.LPI2C_MasterTransferBlocking) refers to fsl_assert.o(i.__aeabi_assert) for __aeabi_assert
    fsl_lpi2c.o(i.LPI2C_MasterTransferBlocking) refers to fsl_lpi2c.o(i.LPI2C_CheckForBusyBus) for LPI2C_CheckForBusyBus
    fsl_lpi2c.o(i.LPI2C_MasterTransferBlocking) refers to fsl_lpi2c.o(i.LPI2C_MasterClearStatusFlags) for LPI2C_MasterClearStatusFlags
    fsl_lpi2c.o(i.LPI2C_MasterTransferBlocking) refers to fsl_lpi2c.o(i.LPI2C_MasterWaitForTxReady) for LPI2C_MasterWaitForTxReady
    fsl_lpi2c.o(i.LPI2C_MasterTransferBlocking) refers to fsl_lpi2c.o(i.LPI2C_MasterSend) for LPI2C_MasterSend
    fsl_lpi2c.o(i.LPI2C_MasterTransferBlocking) refers to fsl_lpi2c.o(i.LPI2C_MasterReceive) for LPI2C_MasterReceive
    fsl_lpi2c.o(i.LPI2C_MasterTransferBlocking) refers to fsl_lpi2c.o(i.LPI2C_MasterStop) for LPI2C_MasterStop
    fsl_lpi2c.o(i.LPI2C_MasterTransferCreateHandle) refers to fsl_assert.o(i.__aeabi_assert) for __aeabi_assert
    fsl_lpi2c.o(i.LPI2C_MasterTransferCreateHandle) refers to memseta.o(.text) for __aeabi_memclr4
    fsl_lpi2c.o(i.LPI2C_MasterTransferCreateHandle) refers to fsl_lpi2c.o(i.LPI2C_GetInstance) for LPI2C_GetInstance
    fsl_lpi2c.o(i.LPI2C_MasterTransferCreateHandle) refers to fsl_lpi2c.o(i.LPI2C_MasterDisableInterrupts) for LPI2C_MasterDisableInterrupts
    fsl_lpi2c.o(i.LPI2C_MasterTransferCreateHandle) refers to fsl_lpi2c.o(i.EnableIRQ) for EnableIRQ
    fsl_lpi2c.o(i.LPI2C_MasterTransferCreateHandle) refers to fsl_lpi2c.o(.bss) for s_lpi2cMasterHandle
    fsl_lpi2c.o(i.LPI2C_MasterTransferCreateHandle) refers to fsl_lpi2c.o(i.LPI2C_MasterTransferHandleIRQ) for LPI2C_MasterTransferHandleIRQ
    fsl_lpi2c.o(i.LPI2C_MasterTransferCreateHandle) refers to fsl_lpi2c.o(.data) for s_lpi2cMasterIsr
    fsl_lpi2c.o(i.LPI2C_MasterTransferCreateHandle) refers to fsl_lpi2c.o(.constdata) for kLpi2cIrqs
    fsl_lpi2c.o(i.LPI2C_MasterTransferGetCount) refers to fsl_assert.o(i.__aeabi_assert) for __aeabi_assert
    fsl_lpi2c.o(i.LPI2C_MasterTransferGetCount) refers to fsl_lpi2c.o(i.LPI2C_MasterDisableInterrupts) for LPI2C_MasterDisableInterrupts
    fsl_lpi2c.o(i.LPI2C_MasterTransferGetCount) refers to fsl_lpi2c.o(i.LPI2C_MasterEnableInterrupts) for LPI2C_MasterEnableInterrupts
    fsl_lpi2c.o(i.LPI2C_MasterTransferHandleIRQ) refers to fsl_lpi2c.o(i.LPI2C_RunTransferStateMachine) for LPI2C_RunTransferStateMachine
    fsl_lpi2c.o(i.LPI2C_MasterTransferHandleIRQ) refers to fsl_lpi2c.o(i.LPI2C_MasterDisableInterrupts) for LPI2C_MasterDisableInterrupts
    fsl_lpi2c.o(i.LPI2C_MasterTransferNonBlocking) refers to fsl_assert.o(i.__aeabi_assert) for __aeabi_assert
    fsl_lpi2c.o(i.LPI2C_MasterTransferNonBlocking) refers to fsl_lpi2c.o(i.LPI2C_CheckForBusyBus) for LPI2C_CheckForBusyBus
    fsl_lpi2c.o(i.LPI2C_MasterTransferNonBlocking) refers to fsl_lpi2c.o(i.LPI2C_MasterDisableInterrupts) for LPI2C_MasterDisableInterrupts
    fsl_lpi2c.o(i.LPI2C_MasterTransferNonBlocking) refers to memcpya.o(.text) for __aeabi_memcpy4
    fsl_lpi2c.o(i.LPI2C_MasterTransferNonBlocking) refers to fsl_lpi2c.o(i.LPI2C_InitTransferStateMachine) for LPI2C_InitTransferStateMachine
    fsl_lpi2c.o(i.LPI2C_MasterTransferNonBlocking) refers to fsl_lpi2c.o(i.LPI2C_MasterClearStatusFlags) for LPI2C_MasterClearStatusFlags
    fsl_lpi2c.o(i.LPI2C_MasterTransferNonBlocking) refers to fsl_lpi2c.o(i.LPI2C_MasterEnableInterrupts) for LPI2C_MasterEnableInterrupts
    fsl_lpi2c.o(i.LPI2C_MasterWaitForTxReady) refers to fsl_lpi2c.o(i.LPI2C_MasterGetFifoCounts) for LPI2C_MasterGetFifoCounts
    fsl_lpi2c.o(i.LPI2C_MasterWaitForTxReady) refers to fsl_lpi2c.o(i.LPI2C_MasterGetStatusFlags) for LPI2C_MasterGetStatusFlags
    fsl_lpi2c.o(i.LPI2C_MasterWaitForTxReady) refers to fsl_lpi2c.o(i.LPI2C_MasterCheckAndClearError) for LPI2C_MasterCheckAndClearError
    fsl_lpi2c.o(i.LPI2C_RunTransferStateMachine) refers to fsl_lpi2c.o(i.LPI2C_MasterGetStatusFlags) for LPI2C_MasterGetStatusFlags
    fsl_lpi2c.o(i.LPI2C_RunTransferStateMachine) refers to fsl_lpi2c.o(i.LPI2C_MasterCheckAndClearError) for LPI2C_MasterCheckAndClearError
    fsl_lpi2c.o(i.LPI2C_RunTransferStateMachine) refers to fsl_lpi2c.o(i.LPI2C_MasterGetFifoCounts) for LPI2C_MasterGetFifoCounts
    fsl_lpi2c.o(i.LPI2C_RunTransferStateMachine) refers to fsl_lpi2c.o(i.LPI2C_MasterDisableInterrupts) for LPI2C_MasterDisableInterrupts
    fsl_lpi2c.o(i.LPI2C_RunTransferStateMachine) refers to fsl_assert.o(i.__aeabi_assert) for __aeabi_assert
    fsl_lpi2c.o(i.LPI2C_SlaveCheckAndClearError) refers to fsl_assert.o(i.__aeabi_assert) for __aeabi_assert
    fsl_lpi2c.o(i.LPI2C_SlaveCheckAndClearError) refers to fsl_lpi2c.o(i.LPI2C_SlaveClearStatusFlags) for LPI2C_SlaveClearStatusFlags
    fsl_lpi2c.o(i.LPI2C_SlaveDeinit) refers to fsl_lpi2c.o(i.LPI2C_SlaveReset) for LPI2C_SlaveReset
    fsl_lpi2c.o(i.LPI2C_SlaveDeinit) refers to fsl_lpi2c.o(i.LPI2C_GetInstance) for LPI2C_GetInstance
    fsl_lpi2c.o(i.LPI2C_SlaveDeinit) refers to fsl_lpi2c.o(i.CLOCK_DisableClock) for CLOCK_DisableClock
    fsl_lpi2c.o(i.LPI2C_SlaveDeinit) refers to fsl_lpi2c.o(.constdata) for kLpi2cClocks
    fsl_lpi2c.o(i.LPI2C_SlaveInit) refers to fsl_lpi2c.o(i.LPI2C_GetInstance) for LPI2C_GetInstance
    fsl_lpi2c.o(i.LPI2C_SlaveInit) refers to fsl_lpi2c.o(i.CLOCK_EnableClock) for CLOCK_EnableClock
    fsl_lpi2c.o(i.LPI2C_SlaveInit) refers to fsl_lpi2c.o(i.LPI2C_SlaveReset) for LPI2C_SlaveReset
    fsl_lpi2c.o(i.LPI2C_SlaveInit) refers to fsl_lpi2c.o(i.LPI2C_GetCyclesForWidth) for LPI2C_GetCyclesForWidth
    fsl_lpi2c.o(i.LPI2C_SlaveInit) refers to fsl_lpi2c.o(.constdata) for kLpi2cClocks
    fsl_lpi2c.o(i.LPI2C_SlaveReceive) refers to fsl_assert.o(i.__aeabi_assert) for __aeabi_assert
    fsl_lpi2c.o(i.LPI2C_SlaveReceive) refers to fsl_lpi2c.o(i.LPI2C_SlaveGetStatusFlags) for LPI2C_SlaveGetStatusFlags
    fsl_lpi2c.o(i.LPI2C_SlaveReceive) refers to fsl_lpi2c.o(i.LPI2C_SlaveCheckAndClearError) for LPI2C_SlaveCheckAndClearError
    fsl_lpi2c.o(i.LPI2C_SlaveReceive) refers to fsl_lpi2c.o(i.LPI2C_SlaveClearStatusFlags) for LPI2C_SlaveClearStatusFlags
    fsl_lpi2c.o(i.LPI2C_SlaveSend) refers to fsl_assert.o(i.__aeabi_assert) for __aeabi_assert
    fsl_lpi2c.o(i.LPI2C_SlaveSend) refers to fsl_lpi2c.o(i.LPI2C_SlaveGetStatusFlags) for LPI2C_SlaveGetStatusFlags
    fsl_lpi2c.o(i.LPI2C_SlaveSend) refers to fsl_lpi2c.o(i.LPI2C_SlaveCheckAndClearError) for LPI2C_SlaveCheckAndClearError
    fsl_lpi2c.o(i.LPI2C_SlaveSend) refers to fsl_lpi2c.o(i.LPI2C_SlaveClearStatusFlags) for LPI2C_SlaveClearStatusFlags
    fsl_lpi2c.o(i.LPI2C_SlaveTransferAbort) refers to fsl_assert.o(i.__aeabi_assert) for __aeabi_assert
    fsl_lpi2c.o(i.LPI2C_SlaveTransferAbort) refers to fsl_lpi2c.o(i.LPI2C_SlaveDisableInterrupts) for LPI2C_SlaveDisableInterrupts
    fsl_lpi2c.o(i.LPI2C_SlaveTransferAbort) refers to memseta.o(.text) for __aeabi_memclr4
    fsl_lpi2c.o(i.LPI2C_SlaveTransferCreateHandle) refers to fsl_assert.o(i.__aeabi_assert) for __aeabi_assert
    fsl_lpi2c.o(i.LPI2C_SlaveTransferCreateHandle) refers to memseta.o(.text) for __aeabi_memclr4
    fsl_lpi2c.o(i.LPI2C_SlaveTransferCreateHandle) refers to fsl_lpi2c.o(i.LPI2C_GetInstance) for LPI2C_GetInstance
    fsl_lpi2c.o(i.LPI2C_SlaveTransferCreateHandle) refers to fsl_lpi2c.o(i.LPI2C_SlaveDisableInterrupts) for LPI2C_SlaveDisableInterrupts
    fsl_lpi2c.o(i.LPI2C_SlaveTransferCreateHandle) refers to fsl_lpi2c.o(i.EnableIRQ) for EnableIRQ
    fsl_lpi2c.o(i.LPI2C_SlaveTransferCreateHandle) refers to fsl_lpi2c.o(.bss) for s_lpi2cSlaveHandle
    fsl_lpi2c.o(i.LPI2C_SlaveTransferCreateHandle) refers to fsl_lpi2c.o(i.LPI2C_SlaveTransferHandleIRQ) for LPI2C_SlaveTransferHandleIRQ
    fsl_lpi2c.o(i.LPI2C_SlaveTransferCreateHandle) refers to fsl_lpi2c.o(.data) for s_lpi2cSlaveIsr
    fsl_lpi2c.o(i.LPI2C_SlaveTransferCreateHandle) refers to fsl_lpi2c.o(.constdata) for kLpi2cIrqs
    fsl_lpi2c.o(i.LPI2C_SlaveTransferGetCount) refers to fsl_assert.o(i.__aeabi_assert) for __aeabi_assert
    fsl_lpi2c.o(i.LPI2C_SlaveTransferHandleIRQ) refers to fsl_lpi2c.o(i.LPI2C_SlaveGetStatusFlags) for LPI2C_SlaveGetStatusFlags
    fsl_lpi2c.o(i.LPI2C_SlaveTransferHandleIRQ) refers to fsl_lpi2c.o(i.LPI2C_SlaveCheckAndClearError) for LPI2C_SlaveCheckAndClearError
    fsl_lpi2c.o(i.LPI2C_SlaveTransferHandleIRQ) refers to fsl_lpi2c.o(i.LPI2C_SlaveClearStatusFlags) for LPI2C_SlaveClearStatusFlags
    fsl_lpi2c.o(i.LPI2C_SlaveTransferHandleIRQ) refers to memseta.o(.text) for __aeabi_memclr4
    fsl_lpi2c.o(i.LPI2C_SlaveTransferNonBlocking) refers to fsl_assert.o(i.__aeabi_assert) for __aeabi_assert
    fsl_lpi2c.o(i.LPI2C_SlaveTransferNonBlocking) refers to fsl_lpi2c.o(i.LPI2C_SlaveGetStatusFlags) for LPI2C_SlaveGetStatusFlags
    fsl_lpi2c.o(i.LPI2C_SlaveTransferNonBlocking) refers to fsl_lpi2c.o(i.LPI2C_SlaveDisableInterrupts) for LPI2C_SlaveDisableInterrupts
    fsl_lpi2c.o(i.LPI2C_SlaveTransferNonBlocking) refers to memseta.o(.text) for __aeabi_memclr4
    fsl_lpi2c.o(i.LPI2C_SlaveTransferNonBlocking) refers to fsl_lpi2c.o(i.LPI2C_SlaveClearStatusFlags) for LPI2C_SlaveClearStatusFlags
    fsl_elcdif.o(i.CLOCK_ControlGate) refers to fsl_assert.o(i.__aeabi_assert) for __aeabi_assert
    fsl_elcdif.o(i.CLOCK_DisableClock) refers to fsl_elcdif.o(i.CLOCK_ControlGate) for CLOCK_ControlGate
    fsl_elcdif.o(i.CLOCK_EnableClock) refers to fsl_elcdif.o(i.CLOCK_ControlGate) for CLOCK_ControlGate
    fsl_elcdif.o(i.ELCDIF_Deinit) refers to fsl_elcdif.o(i.ELCDIF_Reset) for ELCDIF_Reset
    fsl_elcdif.o(i.ELCDIF_Deinit) refers to fsl_elcdif.o(i.ELCDIF_GetInstance) for ELCDIF_GetInstance
    fsl_elcdif.o(i.ELCDIF_Deinit) refers to fsl_elcdif.o(i.CLOCK_DisableClock) for CLOCK_DisableClock
    fsl_elcdif.o(i.ELCDIF_Deinit) refers to fsl_elcdif.o(.constdata) for s_elcdifPixClocks
    fsl_elcdif.o(i.ELCDIF_GetInstance) refers to fsl_assert.o(i.__aeabi_assert) for __aeabi_assert
    fsl_elcdif.o(i.ELCDIF_GetInstance) refers to fsl_elcdif.o(.constdata) for s_elcdifBases
    fsl_elcdif.o(i.ELCDIF_RgbModeGetDefaultConfig) refers to fsl_assert.o(i.__aeabi_assert) for __aeabi_assert
    fsl_elcdif.o(i.ELCDIF_RgbModeInit) refers to fsl_assert.o(i.__aeabi_assert) for __aeabi_assert
    fsl_elcdif.o(i.ELCDIF_RgbModeInit) refers to fsl_elcdif.o(i.ELCDIF_GetInstance) for ELCDIF_GetInstance
    fsl_elcdif.o(i.ELCDIF_RgbModeInit) refers to fsl_elcdif.o(i.CLOCK_EnableClock) for CLOCK_EnableClock
    fsl_elcdif.o(i.ELCDIF_RgbModeInit) refers to fsl_elcdif.o(i.ELCDIF_Reset) for ELCDIF_Reset
    fsl_elcdif.o(i.ELCDIF_RgbModeInit) refers to fsl_elcdif.o(.constdata) for s_elcdifApbClocks
    fsl_elcdif.o(i.ELCDIF_RgbModeInit) refers to fsl_elcdif.o(.data) for s_pixelFormatReg
    fsl_gpio.o(i.CLOCK_EnableClock) refers to fsl_assert.o(i.__aeabi_assert) for __aeabi_assert
    fsl_gpio.o(i.GPIO_GetInstance) refers to fsl_assert.o(i.__aeabi_assert) for __aeabi_assert
    fsl_gpio.o(i.GPIO_GetInstance) refers to fsl_gpio.o(.constdata) for s_gpioBases
    fsl_gpio.o(i.GPIO_PinInit) refers to fsl_gpio.o(i.GPIO_GetInstance) for GPIO_GetInstance
    fsl_gpio.o(i.GPIO_PinInit) refers to fsl_gpio.o(i.CLOCK_EnableClock) for CLOCK_EnableClock
    fsl_gpio.o(i.GPIO_PinInit) refers to fsl_gpio.o(i.GPIO_PinWrite) for GPIO_PinWrite
    fsl_gpio.o(i.GPIO_PinInit) refers to fsl_gpio.o(i.GPIO_PinSetInterruptConfig) for GPIO_PinSetInterruptConfig
    fsl_gpio.o(i.GPIO_PinInit) refers to fsl_gpio.o(.constdata) for s_gpioClock
    fsl_gpio.o(i.GPIO_PinWrite) refers to fsl_assert.o(i.__aeabi_assert) for __aeabi_assert
    fsl_csi.o(i.CLOCK_ControlGate) refers to fsl_assert.o(i.__aeabi_assert) for __aeabi_assert
    fsl_csi.o(i.CSI_Deinit) refers to fsl_csi.o(i.CSI_Stop) for CSI_Stop
    fsl_csi.o(i.CSI_Deinit) refers to fsl_csi.o(i.CSI_GetInstance) for CSI_GetInstance
    fsl_csi.o(i.CSI_Deinit) refers to fsl_csi.o(i.CLOCK_ControlGate) for CLOCK_ControlGate
    fsl_csi.o(i.CSI_Deinit) refers to fsl_csi.o(.constdata) for s_csiClocks
    fsl_csi.o(i.CSI_DriverIRQHandler) refers to fsl_csi.o(.data) for s_csiHandle
    fsl_csi.o(i.CSI_GetDefaultConfig) refers to fsl_assert.o(i.__aeabi_assert) for __aeabi_assert
    fsl_csi.o(i.CSI_GetInstance) refers to fsl_assert.o(i.__aeabi_assert) for __aeabi_assert
    fsl_csi.o(i.CSI_GetInstance) refers to fsl_csi.o(.constdata) for s_csiBases
    fsl_csi.o(i.CSI_Init) refers to fsl_assert.o(i.__aeabi_assert) for __aeabi_assert
    fsl_csi.o(i.CSI_Init) refers to fsl_csi.o(i.CSI_GetInstance) for CSI_GetInstance
    fsl_csi.o(i.CSI_Init) refers to fsl_csi.o(i.CLOCK_ControlGate) for CLOCK_ControlGate
    fsl_csi.o(i.CSI_Init) refers to fsl_csi.o(i.CSI_Reset) for CSI_Reset
    fsl_csi.o(i.CSI_Init) refers to fsl_csi.o(i.CSI_ReflashFifoDma) for CSI_ReflashFifoDma
    fsl_csi.o(i.CSI_Init) refers to fsl_csi.o(.constdata) for s_csiClocks
    fsl_csi.o(i.CSI_Init) refers to fingertech_camera.o(.bss) for camera_cfg
    fsl_csi.o(i.CSI_Reset) refers to fsl_csi.o(i.CSI_Stop) for CSI_Stop
    fsl_csi.o(i.CSI_Reset) refers to fsl_csi.o(i.CSI_ClearFifo) for CSI_ClearFifo
    fsl_csi.o(i.CSI_Reset) refers to fsl_csi.o(i.CSI_ReflashFifoDma) for CSI_ReflashFifoDma
    fsl_csi.o(i.CSI_Start) refers to fsl_csi.o(i.CSI_EnableFifoDmaRequest) for CSI_EnableFifoDmaRequest
    fsl_csi.o(i.CSI_Stop) refers to fsl_csi.o(i.CSI_EnableFifoDmaRequest) for CSI_EnableFifoDmaRequest
    fsl_csi.o(i.CSI_TransferCreateHandle) refers to fsl_assert.o(i.__aeabi_assert) for __aeabi_assert
    fsl_csi.o(i.CSI_TransferCreateHandle) refers to memseta.o(.text) for __aeabi_memclr4
    fsl_csi.o(i.CSI_TransferCreateHandle) refers to fsl_csi.o(i.CSI_GetInstance) for CSI_GetInstance
    fsl_csi.o(i.CSI_TransferCreateHandle) refers to fsl_csi.o(.data) for s_csiHandle
    fsl_csi.o(i.CSI_TransferCreateHandle) refers to fsl_csi.o(i.CSI_TransferHandleIRQ) for CSI_TransferHandleIRQ
    fsl_csi.o(i.CSI_TransferCreateHandle) refers to fsl_csi.o(.constdata) for s_csiIRQ
    fsl_csi.o(i.CSI_TransferGetEmptyBufferCount) refers to fsl_csi.o(i.CSI_TransferGetQueueDelta) for CSI_TransferGetQueueDelta
    fsl_csi.o(i.CSI_TransferGetFullBuffer) refers to fsl_csi.o(i.CSI_TransferIncreaseQueueIdx) for CSI_TransferIncreaseQueueIdx
    fsl_csi.o(i.CSI_TransferHandleIRQ) refers to fsl_csi.o(i.CSI_Stop) for CSI_Stop
    fsl_csi.o(i.CSI_TransferHandleIRQ) refers to fsl_csi.o(i.CSI_TransferIncreaseQueueIdx) for CSI_TransferIncreaseQueueIdx
    fsl_csi.o(i.CSI_TransferHandleIRQ) refers to fsl_csi.o(i.CSI_ReflashFifoDma) for CSI_ReflashFifoDma
    fsl_csi.o(i.CSI_TransferHandleIRQ) refers to fsl_csi.o(i.CSI_Start) for CSI_Start
    fsl_csi.o(i.CSI_TransferHandleIRQ) refers to fsl_csi.o(i.CSI_TransferGetEmptyBufferCount) for CSI_TransferGetEmptyBufferCount
    fsl_csi.o(i.CSI_TransferHandleIRQ) refers to fsl_csi.o(i.CSI_TransferLoadBufferToDevice) for CSI_TransferLoadBufferToDevice
    fsl_csi.o(i.CSI_TransferLoadBufferToDevice) refers to fsl_csi.o(i.CSI_SetRxBufferAddr) for CSI_SetRxBufferAddr
    fsl_csi.o(i.CSI_TransferLoadBufferToDevice) refers to fsl_csi.o(i.CSI_TransferIncreaseQueueIdx) for CSI_TransferIncreaseQueueIdx
    fsl_csi.o(i.CSI_TransferStart) refers to fsl_assert.o(i.__aeabi_assert) for __aeabi_assert
    fsl_csi.o(i.CSI_TransferStart) refers to fsl_csi.o(i.CSI_TransferGetEmptyBufferCount) for CSI_TransferGetEmptyBufferCount
    fsl_csi.o(i.CSI_TransferStart) refers to fsl_csi.o(i.CSI_TransferLoadBufferToDevice) for CSI_TransferLoadBufferToDevice
    fsl_csi.o(i.CSI_TransferStart) refers to fsl_csi.o(i.CSI_ReflashFifoDma) for CSI_ReflashFifoDma
    fsl_csi.o(i.CSI_TransferStart) refers to fsl_csi.o(i.CSI_EnableInterrupts) for CSI_EnableInterrupts
    fsl_csi.o(i.CSI_TransferStart) refers to fsl_csi.o(i.CSI_Start) for CSI_Start
    fsl_csi.o(i.CSI_TransferStop) refers to fsl_assert.o(i.__aeabi_assert) for __aeabi_assert
    fsl_csi.o(i.CSI_TransferStop) refers to fsl_csi.o(i.CSI_Stop) for CSI_Stop
    fsl_csi.o(i.CSI_TransferStop) refers to fsl_csi.o(i.CSI_DisableInterrupts) for CSI_DisableInterrupts
    fsl_csi.o(i.CSI_TransferSubmitEmptyBuffer) refers to fsl_csi.o(i.CSI_TransferGetQueueDelta) for CSI_TransferGetQueueDelta
    fsl_csi.o(i.CSI_TransferSubmitEmptyBuffer) refers to fsl_csi.o(i.CSI_TransferIncreaseQueueIdx) for CSI_TransferIncreaseQueueIdx
    fsl_csi.o(i.CSI_TransferSubmitEmptyBuffer) refers to fsl_csi.o(i.CSI_TransferGetEmptyBufferCount) for CSI_TransferGetEmptyBufferCount
    fsl_csi.o(i.CSI_TransferSubmitEmptyBuffer) refers to fsl_csi.o(i.CSI_TransferLoadBufferToDevice) for CSI_TransferLoadBufferToDevice
    fsl_csi.o(i.CSI_TransferSubmitEmptyBuffer) refers to fsl_csi.o(i.CSI_ReflashFifoDma) for CSI_ReflashFifoDma
    fsl_csi.o(i.CSI_TransferSubmitEmptyBuffer) refers to fsl_csi.o(i.CSI_Start) for CSI_Start
    fsl_cache.o(i.DCACHE_CleanByRange) refers to fsl_cache.o(i.SCB_CleanDCache_by_Addr) for SCB_CleanDCache_by_Addr
    fsl_cache.o(i.DCACHE_CleanInvalidateByRange) refers to fsl_cache.o(i.SCB_CleanInvalidateDCache_by_Addr) for SCB_CleanInvalidateDCache_by_Addr
    fsl_cache.o(i.DCACHE_InvalidateByRange) refers to fsl_cache.o(i.SCB_InvalidateDCache_by_Addr) for SCB_InvalidateDCache_by_Addr
    fsl_cache.o(i.ICACHE_InvalidateByRange) refers to fsl_cache.o(i.L1CACHE_InvalidateICacheByRange) for L1CACHE_InvalidateICacheByRange
    fsl_flexspi.o(NonCacheable) refers to fsl_assert.o(i.__aeabi_assert) for __aeabi_assert
    fsl_flexspi.o(NonCacheable) refers to fsl_flexspi.o(fingertech_flashop) for FLEXSPI_GetBusIdleStatus
    fsl_flexspi.o(NonCacheable) refers to fsl_flexspi.o(.data) for s_flexspiHandle
    fsl_flexspi.o(fingertech_flashop) refers to fsl_flexspi.o(i.FLEXSPI_GetInstance) for FLEXSPI_GetInstance
    fsl_flexspi.o(fingertech_flashop) refers to fsl_flexspi.o(i.CLOCK_EnableClock) for CLOCK_EnableClock
    fsl_flexspi.o(fingertech_flashop) refers to memseta.o(.text) for __aeabi_memclr
    fsl_flexspi.o(fingertech_flashop) refers to fsl_flexspi.o(i.FLEXSPI_ConfigureDll) for FLEXSPI_ConfigureDll
    fsl_flexspi.o(fingertech_flashop) refers to fsl_assert.o(i.__aeabi_assert) for __aeabi_assert
    fsl_flexspi.o(fingertech_flashop) refers to fsl_flexspi.o(.constdata) for s_flexspiClock
    fsl_flexspi.o(fingertech_flashop) refers to fsl_flexspi.o(.data) for s_flexspiHandle
    fsl_flexspi.o(i.CLOCK_EnableClock) refers to fsl_assert.o(i.__aeabi_assert) for __aeabi_assert
    fsl_flexspi.o(i.FLEXSPI_GetInstance) refers to fsl_assert.o(i.__aeabi_assert) for __aeabi_assert
    fsl_flexspi.o(i.FLEXSPI_GetInstance) refers to fsl_flexspi.o(.constdata) for s_flexspiBases
    startup_mimxrt1052.o(RESET) refers to startup_mimxrt1052.o(.text) for Reset_Handler
    startup_mimxrt1052.o(RESET) refers to fingertech_exit.o(i.HardFault_Handler) for HardFault_Handler
    startup_mimxrt1052.o(RESET) refers to fingertech_exit.o(i.CSI_IRQHandler) for CSI_IRQHandler
    startup_mimxrt1052.o(.text) refers to startup_mimxrt1052.o(RESET) for __Vectors
    startup_mimxrt1052.o(.text) refers to system_mimxrt1052.o(i.SystemInit) for SystemInit
    startup_mimxrt1052.o(.text) refers to entry.o(.ARM.Collect$$$$00000000) for __main
    startup_mimxrt1052.o(.text) refers to fsl_edma.o(i.DMA0_DMA16_DriverIRQHandler) for DMA0_DMA16_DriverIRQHandler
    startup_mimxrt1052.o(.text) refers to fsl_edma.o(i.DMA1_DMA17_DriverIRQHandler) for DMA1_DMA17_DriverIRQHandler
    startup_mimxrt1052.o(.text) refers to fsl_edma.o(i.DMA2_DMA18_DriverIRQHandler) for DMA2_DMA18_DriverIRQHandler
    startup_mimxrt1052.o(.text) refers to fsl_edma.o(i.DMA3_DMA19_DriverIRQHandler) for DMA3_DMA19_DriverIRQHandler
    startup_mimxrt1052.o(.text) refers to fsl_edma.o(i.DMA4_DMA20_DriverIRQHandler) for DMA4_DMA20_DriverIRQHandler
    startup_mimxrt1052.o(.text) refers to fsl_edma.o(i.DMA5_DMA21_DriverIRQHandler) for DMA5_DMA21_DriverIRQHandler
    startup_mimxrt1052.o(.text) refers to fsl_edma.o(i.DMA6_DMA22_DriverIRQHandler) for DMA6_DMA22_DriverIRQHandler
    startup_mimxrt1052.o(.text) refers to fsl_edma.o(i.DMA7_DMA23_DriverIRQHandler) for DMA7_DMA23_DriverIRQHandler
    startup_mimxrt1052.o(.text) refers to fsl_edma.o(i.DMA8_DMA24_DriverIRQHandler) for DMA8_DMA24_DriverIRQHandler
    startup_mimxrt1052.o(.text) refers to fsl_edma.o(i.DMA9_DMA25_DriverIRQHandler) for DMA9_DMA25_DriverIRQHandler
    startup_mimxrt1052.o(.text) refers to fsl_edma.o(i.DMA10_DMA26_DriverIRQHandler) for DMA10_DMA26_DriverIRQHandler
    startup_mimxrt1052.o(.text) refers to fsl_edma.o(i.DMA11_DMA27_DriverIRQHandler) for DMA11_DMA27_DriverIRQHandler
    startup_mimxrt1052.o(.text) refers to fsl_edma.o(i.DMA12_DMA28_DriverIRQHandler) for DMA12_DMA28_DriverIRQHandler
    startup_mimxrt1052.o(.text) refers to fsl_edma.o(i.DMA13_DMA29_DriverIRQHandler) for DMA13_DMA29_DriverIRQHandler
    startup_mimxrt1052.o(.text) refers to fsl_edma.o(i.DMA14_DMA30_DriverIRQHandler) for DMA14_DMA30_DriverIRQHandler
    startup_mimxrt1052.o(.text) refers to fsl_edma.o(i.DMA15_DMA31_DriverIRQHandler) for DMA15_DMA31_DriverIRQHandler
    startup_mimxrt1052.o(.text) refers to fsl_lpuart.o(i.LPUART1_DriverIRQHandler) for LPUART1_DriverIRQHandler
    startup_mimxrt1052.o(.text) refers to fsl_lpuart.o(i.LPUART2_DriverIRQHandler) for LPUART2_DriverIRQHandler
    startup_mimxrt1052.o(.text) refers to fsl_lpuart.o(i.LPUART3_DriverIRQHandler) for LPUART3_DriverIRQHandler
    startup_mimxrt1052.o(.text) refers to fsl_lpuart.o(i.LPUART4_DriverIRQHandler) for LPUART4_DriverIRQHandler
    startup_mimxrt1052.o(.text) refers to fsl_lpuart.o(i.LPUART5_DriverIRQHandler) for LPUART5_DriverIRQHandler
    startup_mimxrt1052.o(.text) refers to fsl_lpuart.o(i.LPUART6_DriverIRQHandler) for LPUART6_DriverIRQHandler
    startup_mimxrt1052.o(.text) refers to fsl_lpuart.o(i.LPUART7_DriverIRQHandler) for LPUART7_DriverIRQHandler
    startup_mimxrt1052.o(.text) refers to fsl_lpuart.o(i.LPUART8_DriverIRQHandler) for LPUART8_DriverIRQHandler
    startup_mimxrt1052.o(.text) refers to fsl_lpi2c.o(i.LPI2C1_DriverIRQHandler) for LPI2C1_DriverIRQHandler
    startup_mimxrt1052.o(.text) refers to fsl_lpi2c.o(i.LPI2C2_DriverIRQHandler) for LPI2C2_DriverIRQHandler
    startup_mimxrt1052.o(.text) refers to fsl_lpi2c.o(i.LPI2C3_DriverIRQHandler) for LPI2C3_DriverIRQHandler
    startup_mimxrt1052.o(.text) refers to fsl_lpi2c.o(i.LPI2C4_DriverIRQHandler) for LPI2C4_DriverIRQHandler
    startup_mimxrt1052.o(.text) refers to fsl_lpspi.o(i.LPSPI1_DriverIRQHandler) for LPSPI1_DriverIRQHandler
    startup_mimxrt1052.o(.text) refers to fsl_lpspi.o(i.LPSPI2_DriverIRQHandler) for LPSPI2_DriverIRQHandler
    startup_mimxrt1052.o(.text) refers to fsl_lpspi.o(i.LPSPI3_DriverIRQHandler) for LPSPI3_DriverIRQHandler
    startup_mimxrt1052.o(.text) refers to fsl_lpspi.o(i.LPSPI4_DriverIRQHandler) for LPSPI4_DriverIRQHandler
    startup_mimxrt1052.o(.text) refers to fsl_flexspi.o(NonCacheable) for FLEXSPI_DriverIRQHandler
    system_mimxrt1052.o(i.SystemCoreClockUpdate) refers to uldiv.o(.text) for __aeabi_uldivmod
    system_mimxrt1052.o(i.SystemCoreClockUpdate) refers to system_mimxrt1052.o(.data) for SystemCoreClock
    system_mimxrt1052.o(i.SystemInit) refers to system_mimxrt1052.o(i.SCB_EnableICache) for SCB_EnableICache
    system_mimxrt1052.o(i.SystemInit) refers to system_mimxrt1052.o(i.SCB_EnableDCache) for SCB_EnableDCache
    system_mimxrt1052.o(i.SystemInit) refers to system_mimxrt1052.o(i.SystemInitHook) for SystemInitHook
    fsl_flexspi_nor_boot.o(.boot_hdr.ivt) refers to startup_mimxrt1052.o(RESET) for __Vectors
    fsl_flexspi_nor_boot.o(.boot_hdr.ivt) refers to evkbimxrt1050_sdram_ini_dcd.o(.boot_hdr.dcd_data) for dcd_data
    fsl_flexspi_nor_boot.o(.boot_hdr.ivt) refers to fsl_flexspi_nor_boot.o(.boot_hdr.boot_data) for boot_data
    fsl_io.o(i.IO_Deinit) refers to fsl_lpuart.o(i.LPUART_Deinit) for LPUART_Deinit
    fsl_io.o(i.IO_Deinit) refers to fsl_io.o(.data) for s_debugConsoleIO
    fsl_io.o(i.IO_Init) refers to fsl_assert.o(i.__aeabi_assert) for __aeabi_assert
    fsl_io.o(i.IO_Init) refers to fsl_lpuart.o(i.LPUART_GetDefaultConfig) for LPUART_GetDefaultConfig
    fsl_io.o(i.IO_Init) refers to fsl_lpuart.o(i.LPUART_Init) for LPUART_Init
    fsl_io.o(i.IO_Init) refers to fsl_io.o(.data) for s_debugConsoleIO
    fsl_io.o(i.IO_Transfer) refers to fsl_lpuart.o(i.LPUART_WriteBlocking) for LPUART_WriteBlocking
    fsl_io.o(i.IO_Transfer) refers to fsl_lpuart.o(i.LPUART_ReadBlocking) for LPUART_ReadBlocking
    fsl_io.o(i.IO_Transfer) refers to fsl_io.o(.data) for s_debugConsoleIO
    fsl_io.o(i.IO_WaitIdle) refers to fsl_lpuart.o(i.LPUART_GetStatusFlags) for LPUART_GetStatusFlags
    fsl_io.o(i.IO_WaitIdle) refers to fsl_io.o(.data) for s_debugConsoleIO
    fsl_log.o(i.LOG_Deinit) refers to fsl_io.o(i.IO_Deinit) for IO_Deinit
    fsl_log.o(i.LOG_Init) refers to fsl_io.o(i.IO_Init) for IO_Init
    fsl_log.o(i.LOG_Pop) refers to fsl_io.o(i.IO_Transfer) for IO_Transfer
    fsl_log.o(i.LOG_Push) refers to fsl_assert.o(i.__aeabi_assert) for __aeabi_assert
    fsl_log.o(i.LOG_Push) refers to fsl_log.o(i.LOG_Pop) for LOG_Pop
    fsl_log.o(i.LOG_ReadCharacter) refers to fsl_assert.o(i.__aeabi_assert) for __aeabi_assert
    fsl_log.o(i.LOG_ReadCharacter) refers to fsl_log.o(i.LOG_ReadOneCharacter) for LOG_ReadOneCharacter
    fsl_log.o(i.LOG_ReadLine) refers to fsl_assert.o(i.__aeabi_assert) for __aeabi_assert
    fsl_log.o(i.LOG_ReadLine) refers to fsl_log.o(i.LOG_ReadOneCharacter) for LOG_ReadOneCharacter
    fsl_log.o(i.LOG_ReadOneCharacter) refers to fsl_io.o(i.IO_Transfer) for IO_Transfer
    fsl_log.o(i.LOG_WaitIdle) refers to fsl_io.o(i.IO_WaitIdle) for IO_WaitIdle
    fsl_str.o(i.StrFormatPrintf) refers to fsl_str.o(i.ConvertRadixNumToString) for ConvertRadixNumToString
    fsl_str.o(i.StrFormatPrintf) refers to strlen.o(.text) for strlen
    fsl_str.o(i.StrFormatScanf) refers to fsl_str.o(i.ScanIgnoreWhiteSpace) for ScanIgnoreWhiteSpace
    fsl_assert.o(i.__aeabi_assert) refers to fsl_debug_console.o(i.DbgConsole_Printf) for DbgConsole_Printf
    fsl_debug_console.o(i.DbgConsole_Deinit) refers to fsl_log.o(i.LOG_Deinit) for LOG_Deinit
    fsl_debug_console.o(i.DbgConsole_Flush) refers to fsl_log.o(i.LOG_WaitIdle) for LOG_WaitIdle
    fsl_debug_console.o(i.DbgConsole_Getchar) refers to fsl_log.o(i.LOG_ReadCharacter) for LOG_ReadCharacter
    fsl_debug_console.o(i.DbgConsole_Init) refers to fsl_assert.o(i.__aeabi_assert) for __aeabi_assert
    fsl_debug_console.o(i.DbgConsole_Init) refers to fsl_log.o(i.LOG_Init) for LOG_Init
    fsl_debug_console.o(i.DbgConsole_Printf) refers to memseta.o(.text) for __aeabi_memclr4
    fsl_debug_console.o(i.DbgConsole_Printf) refers to fsl_str.o(i.StrFormatPrintf) for StrFormatPrintf
    fsl_debug_console.o(i.DbgConsole_Printf) refers to fsl_log.o(i.LOG_Push) for LOG_Push
    fsl_debug_console.o(i.DbgConsole_Printf) refers to fsl_debug_console.o(i.DbgConsole_RelocateLog) for DbgConsole_RelocateLog
    fsl_debug_console.o(i.DbgConsole_Putchar) refers to fsl_log.o(i.LOG_Push) for LOG_Push
    fsl_debug_console.o(i.DbgConsole_RelocateLog) refers to fsl_log.o(i.LOG_Push) for LOG_Push
    fsl_debug_console.o(i.DbgConsole_Scanf) refers to memseta.o(.text) for __aeabi_memclr4
    fsl_debug_console.o(i.DbgConsole_Scanf) refers to fsl_log.o(i.LOG_ReadLine) for LOG_ReadLine
    fsl_debug_console.o(i.DbgConsole_Scanf) refers to fsl_str.o(i.StrFormatScanf) for StrFormatScanf
    fsl_debug_console.o(i.fgetc) refers to fsl_log.o(i.LOG_ReadCharacter) for LOG_ReadCharacter
    fsl_debug_console.o(i.fputc) refers to fsl_log.o(i.LOG_Push) for LOG_Push
    entry.o(.ARM.Collect$$$$00000000) refers (Special) to entry10a.o(.ARM.Collect$$$$0000000D) for __rt_final_cpp
    entry.o(.ARM.Collect$$$$00000000) refers (Special) to entry11a.o(.ARM.Collect$$$$0000000F) for __rt_final_exit
    entry.o(.ARM.Collect$$$$00000000) refers (Special) to entry7b.o(.ARM.Collect$$$$00000008) for _main_clock
    entry.o(.ARM.Collect$$$$00000000) refers (Special) to entry8b.o(.ARM.Collect$$$$0000000A) for _main_cpp_init
    entry.o(.ARM.Collect$$$$00000000) refers (Special) to entry9a.o(.ARM.Collect$$$$0000000B) for _main_init
    entry.o(.ARM.Collect$$$$00000000) refers (Special) to entry5.o(.ARM.Collect$$$$00000004) for _main_scatterload
    entry.o(.ARM.Collect$$$$00000000) refers (Special) to entry4.o(.ARM.Collect$$$$00000003) for _main_stk
    uldiv.o(.text) refers to llushr.o(.text) for __aeabi_llsr
    uldiv.o(.text) refers to llshl.o(.text) for __aeabi_llsl
    ldiv.o(.text) refers to uldiv.o(.text) for __aeabi_uldivmod
    printfb.o(i.__0fprintf$bare) refers to printfb.o(i._printf_core) for _printf_core
    printfb.o(i.__0fprintf$bare) refers to fsl_debug_console.o(i.fputc) for fputc
    printfb.o(i.__0printf$bare) refers to printfb.o(i._printf_core) for _printf_core
    printfb.o(i.__0printf$bare) refers to fsl_debug_console.o(i.fputc) for fputc
    printfb.o(i.__0printf$bare) refers to fsl_debug_console.o(.data) for __stdout
    printfb.o(i.__0snprintf$bare) refers to printfb.o(i._printf_core) for _printf_core
    printfb.o(i.__0snprintf$bare) refers to printfb.o(i._snputc) for _snputc
    printfb.o(i.__0sprintf$bare) refers to printfb.o(i._printf_core) for _printf_core
    printfb.o(i.__0sprintf$bare) refers to printfb.o(i._sputc) for _sputc
    printfb.o(i.__0vfprintf$bare) refers to printfb.o(i._printf_core) for _printf_core
    printfb.o(i.__0vfprintf$bare) refers to fsl_debug_console.o(i.fputc) for fputc
    printfb.o(i.__0vprintf$bare) refers to printfb.o(i._printf_core) for _printf_core
    printfb.o(i.__0vprintf$bare) refers to fsl_debug_console.o(i.fputc) for fputc
    printfb.o(i.__0vprintf$bare) refers to fsl_debug_console.o(.data) for __stdout
    printfb.o(i.__0vsnprintf$bare) refers to printfb.o(i._printf_core) for _printf_core
    printfb.o(i.__0vsnprintf$bare) refers to printfb.o(i._snputc) for _snputc
    printfb.o(i.__0vsprintf$bare) refers to printfb.o(i._printf_core) for _printf_core
    printfb.o(i.__0vsprintf$bare) refers to printfb.o(i._sputc) for _sputc
    printf0.o(i.__0fprintf$0) refers to printf0.o(i._printf_core) for _printf_core
    printf0.o(i.__0fprintf$0) refers to fsl_debug_console.o(i.fputc) for fputc
    printf0.o(i.__0printf$0) refers to printf0.o(i._printf_core) for _printf_core
    printf0.o(i.__0printf$0) refers to fsl_debug_console.o(i.fputc) for fputc
    printf0.o(i.__0printf$0) refers to fsl_debug_console.o(.data) for __stdout
    printf0.o(i.__0snprintf$0) refers to printf0.o(i._printf_core) for _printf_core
    printf0.o(i.__0snprintf$0) refers to printf0.o(i._snputc) for _snputc
    printf0.o(i.__0sprintf$0) refers to printf0.o(i._printf_core) for _printf_core
    printf0.o(i.__0sprintf$0) refers to printf0.o(i._sputc) for _sputc
    printf0.o(i.__0vfprintf$0) refers to printf0.o(i._printf_core) for _printf_core
    printf0.o(i.__0vfprintf$0) refers to fsl_debug_console.o(i.fputc) for fputc
    printf0.o(i.__0vprintf$0) refers to printf0.o(i._printf_core) for _printf_core
    printf0.o(i.__0vprintf$0) refers to fsl_debug_console.o(i.fputc) for fputc
    printf0.o(i.__0vprintf$0) refers to fsl_debug_console.o(.data) for __stdout
    printf0.o(i.__0vsnprintf$0) refers to printf0.o(i._printf_core) for _printf_core
    printf0.o(i.__0vsnprintf$0) refers to printf0.o(i._snputc) for _snputc
    printf0.o(i.__0vsprintf$0) refers to printf0.o(i._printf_core) for _printf_core
    printf0.o(i.__0vsprintf$0) refers to printf0.o(i._sputc) for _sputc
    printf1.o(i.__0fprintf$1) refers to printf1.o(i._printf_core) for _printf_core
    printf1.o(i.__0fprintf$1) refers to fsl_debug_console.o(i.fputc) for fputc
    printf1.o(i.__0printf$1) refers to printf1.o(i._printf_core) for _printf_core
    printf1.o(i.__0printf$1) refers to fsl_debug_console.o(i.fputc) for fputc
    printf1.o(i.__0printf$1) refers to fsl_debug_console.o(.data) for __stdout
    printf1.o(i.__0snprintf$1) refers to printf1.o(i._printf_core) for _printf_core
    printf1.o(i.__0snprintf$1) refers to printf1.o(i._snputc) for _snputc
    printf1.o(i.__0sprintf$1) refers to printf1.o(i._printf_core) for _printf_core
    printf1.o(i.__0sprintf$1) refers to printf1.o(i._sputc) for _sputc
    printf1.o(i.__0vfprintf$1) refers to printf1.o(i._printf_core) for _printf_core
    printf1.o(i.__0vfprintf$1) refers to fsl_debug_console.o(i.fputc) for fputc
    printf1.o(i.__0vprintf$1) refers to printf1.o(i._printf_core) for _printf_core
    printf1.o(i.__0vprintf$1) refers to fsl_debug_console.o(i.fputc) for fputc
    printf1.o(i.__0vprintf$1) refers to fsl_debug_console.o(.data) for __stdout
    printf1.o(i.__0vsnprintf$1) refers to printf1.o(i._printf_core) for _printf_core
    printf1.o(i.__0vsnprintf$1) refers to printf1.o(i._snputc) for _snputc
    printf1.o(i.__0vsprintf$1) refers to printf1.o(i._printf_core) for _printf_core
    printf1.o(i.__0vsprintf$1) refers to printf1.o(i._sputc) for _sputc
    printf1.o(i._printf_core) refers to uidiv.o(.text) for __aeabi_uidivmod
    printf2.o(i.__0fprintf$2) refers to printf2.o(i._printf_core) for _printf_core
    printf2.o(i.__0fprintf$2) refers to fsl_debug_console.o(i.fputc) for fputc
    printf2.o(i.__0printf$2) refers to printf2.o(i._printf_core) for _printf_core
    printf2.o(i.__0printf$2) refers to fsl_debug_console.o(i.fputc) for fputc
    printf2.o(i.__0printf$2) refers to fsl_debug_console.o(.data) for __stdout
    printf2.o(i.__0snprintf$2) refers to printf2.o(i._printf_core) for _printf_core
    printf2.o(i.__0snprintf$2) refers to printf2.o(i._snputc) for _snputc
    printf2.o(i.__0sprintf$2) refers to printf2.o(i._printf_core) for _printf_core
    printf2.o(i.__0sprintf$2) refers to printf2.o(i._sputc) for _sputc
    printf2.o(i.__0vfprintf$2) refers to printf2.o(i._printf_core) for _printf_core
    printf2.o(i.__0vfprintf$2) refers to fsl_debug_console.o(i.fputc) for fputc
    printf2.o(i.__0vprintf$2) refers to printf2.o(i._printf_core) for _printf_core
    printf2.o(i.__0vprintf$2) refers to fsl_debug_console.o(i.fputc) for fputc
    printf2.o(i.__0vprintf$2) refers to fsl_debug_console.o(.data) for __stdout
    printf2.o(i.__0vsnprintf$2) refers to printf2.o(i._printf_core) for _printf_core
    printf2.o(i.__0vsnprintf$2) refers to printf2.o(i._snputc) for _snputc
    printf2.o(i.__0vsprintf$2) refers to printf2.o(i._printf_core) for _printf_core
    printf2.o(i.__0vsprintf$2) refers to printf2.o(i._sputc) for _sputc
    printf3.o(i.__0fprintf$3) refers to printf3.o(i._printf_core) for _printf_core
    printf3.o(i.__0fprintf$3) refers to fsl_debug_console.o(i.fputc) for fputc
    printf3.o(i.__0printf$3) refers to printf3.o(i._printf_core) for _printf_core
    printf3.o(i.__0printf$3) refers to fsl_debug_console.o(i.fputc) for fputc
    printf3.o(i.__0printf$3) refers to fsl_debug_console.o(.data) for __stdout
    printf3.o(i.__0snprintf$3) refers to printf3.o(i._printf_core) for _printf_core
    printf3.o(i.__0snprintf$3) refers to printf3.o(i._snputc) for _snputc
    printf3.o(i.__0sprintf$3) refers to printf3.o(i._printf_core) for _printf_core
    printf3.o(i.__0sprintf$3) refers to printf3.o(i._sputc) for _sputc
    printf3.o(i.__0vfprintf$3) refers to printf3.o(i._printf_core) for _printf_core
    printf3.o(i.__0vfprintf$3) refers to fsl_debug_console.o(i.fputc) for fputc
    printf3.o(i.__0vprintf$3) refers to printf3.o(i._printf_core) for _printf_core
    printf3.o(i.__0vprintf$3) refers to fsl_debug_console.o(i.fputc) for fputc
    printf3.o(i.__0vprintf$3) refers to fsl_debug_console.o(.data) for __stdout
    printf3.o(i.__0vsnprintf$3) refers to printf3.o(i._printf_core) for _printf_core
    printf3.o(i.__0vsnprintf$3) refers to printf3.o(i._snputc) for _snputc
    printf3.o(i.__0vsprintf$3) refers to printf3.o(i._printf_core) for _printf_core
    printf3.o(i.__0vsprintf$3) refers to printf3.o(i._sputc) for _sputc
    printf3.o(i._printf_core) refers to uidiv.o(.text) for __aeabi_uidivmod
    printf4.o(i.__0fprintf$4) refers to printf4.o(i._printf_core) for _printf_core
    printf4.o(i.__0fprintf$4) refers to fsl_debug_console.o(i.fputc) for fputc
    printf4.o(i.__0printf$4) refers to printf4.o(i._printf_core) for _printf_core
    printf4.o(i.__0printf$4) refers to fsl_debug_console.o(i.fputc) for fputc
    printf4.o(i.__0printf$4) refers to fsl_debug_console.o(.data) for __stdout
    printf4.o(i.__0snprintf$4) refers to printf4.o(i._printf_core) for _printf_core
    printf4.o(i.__0snprintf$4) refers to printf4.o(i._snputc) for _snputc
    printf4.o(i.__0sprintf$4) refers to printf4.o(i._printf_core) for _printf_core
    printf4.o(i.__0sprintf$4) refers to printf4.o(i._sputc) for _sputc
    printf4.o(i.__0vfprintf$4) refers to printf4.o(i._printf_core) for _printf_core
    printf4.o(i.__0vfprintf$4) refers to fsl_debug_console.o(i.fputc) for fputc
    printf4.o(i.__0vprintf$4) refers to printf4.o(i._printf_core) for _printf_core
    printf4.o(i.__0vprintf$4) refers to fsl_debug_console.o(i.fputc) for fputc
    printf4.o(i.__0vprintf$4) refers to fsl_debug_console.o(.data) for __stdout
    printf4.o(i.__0vsnprintf$4) refers to printf4.o(i._printf_core) for _printf_core
    printf4.o(i.__0vsnprintf$4) refers to printf4.o(i._snputc) for _snputc
    printf4.o(i.__0vsprintf$4) refers to printf4.o(i._printf_core) for _printf_core
    printf4.o(i.__0vsprintf$4) refers to printf4.o(i._sputc) for _sputc
    printf4.o(i._printf_core) refers to uldiv.o(.text) for __aeabi_uldivmod
    printf5.o(i.__0fprintf$5) refers to printf5.o(i._printf_core) for _printf_core
    printf5.o(i.__0fprintf$5) refers to fsl_debug_console.o(i.fputc) for fputc
    printf5.o(i.__0printf$5) refers to printf5.o(i._printf_core) for _printf_core
    printf5.o(i.__0printf$5) refers to fsl_debug_console.o(i.fputc) for fputc
    printf5.o(i.__0printf$5) refers to fsl_debug_console.o(.data) for __stdout
    printf5.o(i.__0snprintf$5) refers to printf5.o(i._printf_core) for _printf_core
    printf5.o(i.__0snprintf$5) refers to printf5.o(i._snputc) for _snputc
    printf5.o(i.__0sprintf$5) refers to printf5.o(i._printf_core) for _printf_core
    printf5.o(i.__0sprintf$5) refers to printf5.o(i._sputc) for _sputc
    printf5.o(i.__0vfprintf$5) refers to printf5.o(i._printf_core) for _printf_core
    printf5.o(i.__0vfprintf$5) refers to fsl_debug_console.o(i.fputc) for fputc
    printf5.o(i.__0vprintf$5) refers to printf5.o(i._printf_core) for _printf_core
    printf5.o(i.__0vprintf$5) refers to fsl_debug_console.o(i.fputc) for fputc
    printf5.o(i.__0vprintf$5) refers to fsl_debug_console.o(.data) for __stdout
    printf5.o(i.__0vsnprintf$5) refers to printf5.o(i._printf_core) for _printf_core
    printf5.o(i.__0vsnprintf$5) refers to printf5.o(i._snputc) for _snputc
    printf5.o(i.__0vsprintf$5) refers to printf5.o(i._printf_core) for _printf_core
    printf5.o(i.__0vsprintf$5) refers to printf5.o(i._sputc) for _sputc
    printf5.o(i._printf_core) refers to uldiv.o(.text) for __aeabi_uldivmod
    printf6.o(i.__0fprintf$6) refers to printf6.o(i._printf_core) for _printf_core
    printf6.o(i.__0fprintf$6) refers to fsl_debug_console.o(i.fputc) for fputc
    printf6.o(i.__0printf$6) refers to printf6.o(i._printf_core) for _printf_core
    printf6.o(i.__0printf$6) refers to fsl_debug_console.o(i.fputc) for fputc
    printf6.o(i.__0printf$6) refers to fsl_debug_console.o(.data) for __stdout
    printf6.o(i.__0snprintf$6) refers to printf6.o(i._printf_core) for _printf_core
    printf6.o(i.__0snprintf$6) refers to printf6.o(i._snputc) for _snputc
    printf6.o(i.__0sprintf$6) refers to printf6.o(i._printf_core) for _printf_core
    printf6.o(i.__0sprintf$6) refers to printf6.o(i._sputc) for _sputc
    printf6.o(i.__0vfprintf$6) refers to printf6.o(i._printf_core) for _printf_core
    printf6.o(i.__0vfprintf$6) refers to fsl_debug_console.o(i.fputc) for fputc
    printf6.o(i.__0vprintf$6) refers to printf6.o(i._printf_core) for _printf_core
    printf6.o(i.__0vprintf$6) refers to fsl_debug_console.o(i.fputc) for fputc
    printf6.o(i.__0vprintf$6) refers to fsl_debug_console.o(.data) for __stdout
    printf6.o(i.__0vsnprintf$6) refers to printf6.o(i._printf_core) for _printf_core
    printf6.o(i.__0vsnprintf$6) refers to printf6.o(i._snputc) for _snputc
    printf6.o(i.__0vsprintf$6) refers to printf6.o(i._printf_core) for _printf_core
    printf6.o(i.__0vsprintf$6) refers to printf6.o(i._sputc) for _sputc
    printf6.o(i._printf_core) refers to printf6.o(i._printf_pre_padding) for _printf_pre_padding
    printf6.o(i._printf_core) refers to uidiv.o(.text) for __aeabi_uidivmod
    printf6.o(i._printf_core) refers to printf6.o(i._printf_post_padding) for _printf_post_padding
    printf7.o(i.__0fprintf$7) refers to printf7.o(i._printf_core) for _printf_core
    printf7.o(i.__0fprintf$7) refers to fsl_debug_console.o(i.fputc) for fputc
    printf7.o(i.__0printf$7) refers to printf7.o(i._printf_core) for _printf_core
    printf7.o(i.__0printf$7) refers to fsl_debug_console.o(i.fputc) for fputc
    printf7.o(i.__0printf$7) refers to fsl_debug_console.o(.data) for __stdout
    printf7.o(i.__0snprintf$7) refers to printf7.o(i._printf_core) for _printf_core
    printf7.o(i.__0snprintf$7) refers to printf7.o(i._snputc) for _snputc
    printf7.o(i.__0sprintf$7) refers to printf7.o(i._printf_core) for _printf_core
    printf7.o(i.__0sprintf$7) refers to printf7.o(i._sputc) for _sputc
    printf7.o(i.__0vfprintf$7) refers to printf7.o(i._printf_core) for _printf_core
    printf7.o(i.__0vfprintf$7) refers to fsl_debug_console.o(i.fputc) for fputc
    printf7.o(i.__0vprintf$7) refers to printf7.o(i._printf_core) for _printf_core
    printf7.o(i.__0vprintf$7) refers to fsl_debug_console.o(i.fputc) for fputc
    printf7.o(i.__0vprintf$7) refers to fsl_debug_console.o(.data) for __stdout
    printf7.o(i.__0vsnprintf$7) refers to printf7.o(i._printf_core) for _printf_core
    printf7.o(i.__0vsnprintf$7) refers to printf7.o(i._snputc) for _snputc
    printf7.o(i.__0vsprintf$7) refers to printf7.o(i._printf_core) for _printf_core
    printf7.o(i.__0vsprintf$7) refers to printf7.o(i._sputc) for _sputc
    printf7.o(i._printf_core) refers to printf7.o(i._printf_pre_padding) for _printf_pre_padding
    printf7.o(i._printf_core) refers to uldiv.o(.text) for __aeabi_uldivmod
    printf7.o(i._printf_core) refers to printf7.o(i._printf_post_padding) for _printf_post_padding
    printf8.o(i.__0fprintf$8) refers to printf8.o(i._printf_core) for _printf_core
    printf8.o(i.__0fprintf$8) refers to fsl_debug_console.o(i.fputc) for fputc
    printf8.o(i.__0printf$8) refers to printf8.o(i._printf_core) for _printf_core
    printf8.o(i.__0printf$8) refers to fsl_debug_console.o(i.fputc) for fputc
    printf8.o(i.__0printf$8) refers to fsl_debug_console.o(.data) for __stdout
    printf8.o(i.__0snprintf$8) refers to printf8.o(i._printf_core) for _printf_core
    printf8.o(i.__0snprintf$8) refers to printf8.o(i._snputc) for _snputc
    printf8.o(i.__0sprintf$8) refers to printf8.o(i._printf_core) for _printf_core
    printf8.o(i.__0sprintf$8) refers to printf8.o(i._sputc) for _sputc
    printf8.o(i.__0vfprintf$8) refers to printf8.o(i._printf_core) for _printf_core
    printf8.o(i.__0vfprintf$8) refers to fsl_debug_console.o(i.fputc) for fputc
    printf8.o(i.__0vprintf$8) refers to printf8.o(i._printf_core) for _printf_core
    printf8.o(i.__0vprintf$8) refers to fsl_debug_console.o(i.fputc) for fputc
    printf8.o(i.__0vprintf$8) refers to fsl_debug_console.o(.data) for __stdout
    printf8.o(i.__0vsnprintf$8) refers to printf8.o(i._printf_core) for _printf_core
    printf8.o(i.__0vsnprintf$8) refers to printf8.o(i._snputc) for _snputc
    printf8.o(i.__0vsprintf$8) refers to printf8.o(i._printf_core) for _printf_core
    printf8.o(i.__0vsprintf$8) refers to printf8.o(i._sputc) for _sputc
    printf8.o(i._printf_core) refers to printf8.o(i._printf_pre_padding) for _printf_pre_padding
    printf8.o(i._printf_core) refers to uldiv.o(.text) for __aeabi_uldivmod
    printf8.o(i._printf_core) refers to printf8.o(i._printf_post_padding) for _printf_post_padding
    printfa.o(i.__0fprintf) refers (Special) to iusefp.o(.text) for __I$use$fp
    printfa.o(i.__0fprintf) refers to printfa.o(i._printf_core) for _printf_core
    printfa.o(i.__0fprintf) refers to fsl_debug_console.o(i.fputc) for fputc
    printfa.o(i.__0printf) refers (Special) to iusefp.o(.text) for __I$use$fp
    printfa.o(i.__0printf) refers to printfa.o(i._printf_core) for _printf_core
    printfa.o(i.__0printf) refers to fsl_debug_console.o(i.fputc) for fputc
    printfa.o(i.__0printf) refers to fsl_debug_console.o(.data) for __stdout
    printfa.o(i.__0snprintf) refers (Special) to iusefp.o(.text) for __I$use$fp
    printfa.o(i.__0snprintf) refers to printfa.o(i._printf_core) for _printf_core
    printfa.o(i.__0snprintf) refers to printfa.o(i._snputc) for _snputc
    printfa.o(i.__0sprintf) refers (Special) to iusefp.o(.text) for __I$use$fp
    printfa.o(i.__0sprintf) refers to printfa.o(i._printf_core) for _printf_core
    printfa.o(i.__0sprintf) refers to printfa.o(i._sputc) for _sputc
    printfa.o(i.__0vfprintf) refers (Special) to iusefp.o(.text) for __I$use$fp
    printfa.o(i.__0vfprintf) refers to printfa.o(i._printf_core) for _printf_core
    printfa.o(i.__0vfprintf) refers to fsl_debug_console.o(i.fputc) for fputc
    printfa.o(i.__0vprintf) refers (Special) to iusefp.o(.text) for __I$use$fp
    printfa.o(i.__0vprintf) refers to printfa.o(i._printf_core) for _printf_core
    printfa.o(i.__0vprintf) refers to fsl_debug_console.o(i.fputc) for fputc
    printfa.o(i.__0vprintf) refers to fsl_debug_console.o(.data) for __stdout
    printfa.o(i.__0vsnprintf) refers (Special) to iusefp.o(.text) for __I$use$fp
    printfa.o(i.__0vsnprintf) refers to printfa.o(i._printf_core) for _printf_core
    printfa.o(i.__0vsnprintf) refers to printfa.o(i._snputc) for _snputc
    printfa.o(i.__0vsprintf) refers (Special) to iusefp.o(.text) for __I$use$fp
    printfa.o(i.__0vsprintf) refers to printfa.o(i._printf_core) for _printf_core
    printfa.o(i.__0vsprintf) refers to printfa.o(i._sputc) for _sputc
    printfa.o(i._fp_digits) refers (Special) to iusefp.o(.text) for __I$use$fp
    printfa.o(i._fp_digits) refers to dmul.o(.text) for __aeabi_dmul
    printfa.o(i._fp_digits) refers to ddiv.o(.text) for __aeabi_ddiv
    printfa.o(i._fp_digits) refers to cdrcmple.o(.text) for __aeabi_cdrcmple
    printfa.o(i._fp_digits) refers to dadd.o(.text) for __aeabi_dadd
    printfa.o(i._fp_digits) refers to dfixul.o(.text) for __aeabi_d2ulz
    printfa.o(i._fp_digits) refers to uldiv.o(.text) for __aeabi_uldivmod
    printfa.o(i._printf_core) refers (Special) to iusefp.o(.text) for __I$use$fp
    printfa.o(i._printf_core) refers to printfa.o(i._printf_pre_padding) for _printf_pre_padding
    printfa.o(i._printf_core) refers to uldiv.o(.text) for __aeabi_uldivmod
    printfa.o(i._printf_core) refers to printfa.o(i._printf_post_padding) for _printf_post_padding
    printfa.o(i._printf_core) refers to printfa.o(i._fp_digits) for _fp_digits
    printfa.o(i._printf_core) refers to uidiv.o(.text) for __aeabi_uidivmod
    printfa.o(i._printf_post_padding) refers (Special) to iusefp.o(.text) for __I$use$fp
    printfa.o(i._printf_pre_padding) refers (Special) to iusefp.o(.text) for __I$use$fp
    printfa.o(i._snputc) refers (Special) to iusefp.o(.text) for __I$use$fp
    printfa.o(i._sputc) refers (Special) to iusefp.o(.text) for __I$use$fp
    malloc2.o(i.__free$2region) refers to mvars.o(.data) for __microlib_freelist
    malloc2.o(i.__malloc$2region) refers to mvars.o(.data) for __microlib_freelist_initialised
    malloc2.o(i.__malloc$2region) refers to mvars.o(.data) for __microlib_freelist
    mallocr2.o(i.__free$realloc$2region) refers to mvars.o(.data) for __microlib_freelist
    mallocr2.o(i.__malloc$realloc$2region) refers to mallocr2.o(i.internal_alloc) for internal_alloc
    mallocr2.o(i.__malloc$realloc$2region) refers to mvars.o(.data) for __microlib_freelist_initialised
    mallocr2.o(i.__malloc$realloc$2region) refers to mvars.o(.data) for __microlib_freelist
    mallocr2.o(i.__realloc$2region) refers to mallocr2.o(i.__free$realloc$2region) for __free$realloc$2region
    mallocr2.o(i.__realloc$2region) refers to mallocr2.o(i.internal_alloc) for internal_alloc
    mallocr2.o(i.__realloc$2region) refers to mallocr2.o(i.__malloc$realloc$2region) for __malloc$realloc$2region
    mallocr2.o(i.__realloc$2region) refers to mvars.o(.data) for __microlib_freelist
    mallocr2.o(i.internal_alloc) refers to memcpya.o(.text) for __aeabi_memcpy
    mallocr2.o(i.internal_alloc) refers to mvars.o(.data) for __microlib_freelist
    malloca2.o(i.__aligned_malloc$2region) refers to mvars.o(.data) for __microlib_freelist_initialised
    malloca2.o(i.__aligned_malloc$2region) refers to mvars.o(.data) for __microlib_freelist
    malloca2.o(i.__free$memalign$2region) refers to mvars.o(.data) for __microlib_freelist
    malloca2.o(i.__malloc$memalign$2region) refers to malloca2.o(i.__aligned_malloc$2region) for __aligned_malloc$2region
    mallocra2.o(i.__aligned_malloc$realloc$2region) refers to mallocra2.o(i.internal_alloc) for internal_alloc
    mallocra2.o(i.__aligned_malloc$realloc$2region) refers to mvars.o(.data) for __microlib_freelist_initialised
    mallocra2.o(i.__aligned_malloc$realloc$2region) refers to mvars.o(.data) for __microlib_freelist
    mallocra2.o(i.__free$realloc$memalign$2region) refers to mvars.o(.data) for __microlib_freelist
    mallocra2.o(i.__malloc$realloc$memalign$2region) refers to mallocra2.o(i.__aligned_malloc$realloc$2region) for __aligned_malloc$realloc$2region
    mallocra2.o(i.__realloc$memalign$2region) refers to mallocra2.o(i.__free$realloc$memalign$2region) for __free$realloc$memalign$2region
    mallocra2.o(i.__realloc$memalign$2region) refers to mallocra2.o(i.internal_alloc) for internal_alloc
    mallocra2.o(i.__realloc$memalign$2region) refers to mallocra2.o(i.__malloc$realloc$memalign$2region) for __malloc$realloc$memalign$2region
    mallocra2.o(i.__realloc$memalign$2region) refers to mvars.o(.data) for __microlib_freelist
    mallocra2.o(i.internal_alloc) refers to memcpya.o(.text) for __aeabi_memcpy
    mallocra2.o(i.internal_alloc) refers to mvars.o(.data) for __microlib_freelist
    entry4.o(.ARM.Collect$$$$00000003) refers to entry4.o(.ARM.Collect$$$$00002714) for __lit__00000000
    entry4.o(__vectab_stack_and_reset_area) refers to entry.o(.ARM.Collect$$$$00000000) for __main
    entry5.o(.ARM.Collect$$$$00000004) refers to init.o(.text) for __scatterload
    entry9a.o(.ARM.Collect$$$$0000000B) refers to main.o(i.main) for main
    entry9b.o(.ARM.Collect$$$$0000000C) refers to main.o(i.main) for main
    dadd.o(.text) refers to llshl.o(.text) for __aeabi_llsl
    dadd.o(.text) refers to llsshr.o(.text) for __aeabi_lasr
    dadd.o(.text) refers to depilogue.o(.text) for _double_epilogue
    dmul.o(.text) refers to depilogue.o(.text) for _double_epilogue
    ddiv.o(.text) refers to depilogue.o(.text) for _double_round
    dfixul.o(.text) refers to llushr.o(.text) for __aeabi_llsr
    dfixul.o(.text) refers to llshl.o(.text) for __aeabi_llsl
    init.o(.text) refers to entry5.o(.ARM.Collect$$$$00000004) for __main_after_scatterload
    depilogue.o(.text) refers to llshl.o(.text) for __aeabi_llsl
    depilogue.o(.text) refers to llushr.o(.text) for __aeabi_llsr


==============================================================================

Removing Unused input sections from the image.

    Removing board.o(.rev16_text), (4 bytes).
    Removing board.o(.revsh_text), (4 bytes).
    Removing board.o(.rrx_text), (6 bytes).
    Removing board.o(i.BOARD_DebugConsoleSrcFreq), (120 bytes).
    Removing board.o(i.BOARD_InitDebugConsole), (28 bytes).
    Removing board.o(i.CLOCK_GetDiv), (32 bytes).
    Removing clock_config.o(.rev16_text), (4 bytes).
    Removing clock_config.o(.revsh_text), (4 bytes).
    Removing clock_config.o(.rrx_text), (6 bytes).
    Removing clock_config.o(i.BOARD_InitBootClocks), (8 bytes).
    Removing pin_mux.o(.rev16_text), (4 bytes).
    Removing pin_mux.o(.revsh_text), (4 bytes).
    Removing pin_mux.o(.rrx_text), (6 bytes).
    Removing pin_mux.o(i.BOARD_InitBootPins), (8 bytes).
    Removing fingertech_common.o(.rev16_text), (4 bytes).
    Removing fingertech_common.o(.revsh_text), (4 bytes).
    Removing fingertech_common.o(.rrx_text), (6 bytes).
    Removing fingertech_common.o(i.FingerTech_BspUartInit), (48 bytes).
    Removing fingertech_common.o(i.FingerTech_Delayus), (34 bytes).
    Removing fingertech_common.o(i.FingerTech_FpIntDisable), (100 bytes).
    Removing fingertech_common.o(i.FingerTech_FpIntEnable), (60 bytes).
    Removing fingertech_common.o(i.FingerTech_FpIntPinInit), (96 bytes).
    Removing fingertech_common.o(i.FingerTech_LedOff), (20 bytes).
    Removing fingertech_common.o(i.FingerTech_LedOn), (20 bytes).
    Removing fingertech_exit.o(.rev16_text), (4 bytes).
    Removing fingertech_exit.o(.revsh_text), (4 bytes).
    Removing fingertech_exit.o(.rrx_text), (6 bytes).
    Removing fingertech_exit.o(i.FingerTech_NVIC_SetPriority), (168 bytes).
    Removing fingertech_camera.o(.rev16_text), (4 bytes).
    Removing fingertech_camera.o(.revsh_text), (4 bytes).
    Removing fingertech_camera.o(.rrx_text), (6 bytes).
    Removing fingertech_camera.o(i.BOARD_PullCameraResetPin), (2 bytes).
    Removing fsl_csi_camera_adapter.o(.rev16_text), (4 bytes).
    Removing fsl_csi_camera_adapter.o(.revsh_text), (4 bytes).
    Removing fsl_csi_camera_adapter.o(.rrx_text), (6 bytes).
    Removing fsl_csi_camera_adapter.o(i.CSI_ADAPTER_Callback), (48 bytes).
    Removing fsl_csi_camera_adapter.o(i.CSI_ADAPTER_Deinit), (16 bytes).
    Removing fsl_csi_camera_adapter.o(i.CSI_ADAPTER_GetFullBuffer), (20 bytes).
    Removing fsl_csi_camera_adapter.o(i.CSI_ADAPTER_Init), (204 bytes).
    Removing fsl_csi_camera_adapter.o(i.CSI_ADAPTER_InitExt), (30 bytes).
    Removing fsl_csi_camera_adapter.o(i.CSI_ADAPTER_Start), (16 bytes).
    Removing fsl_csi_camera_adapter.o(i.CSI_ADAPTER_Stop), (16 bytes).
    Removing fsl_csi_camera_adapter.o(i.CSI_ADAPTER_SubmitEmptyBuffer), (20 bytes).
    Removing fsl_csi_camera_adapter.o(.constdata), (28 bytes).
    Removing fsl_dmamux.o(.rev16_text), (4 bytes).
    Removing fsl_dmamux.o(.revsh_text), (4 bytes).
    Removing fsl_dmamux.o(.rrx_text), (6 bytes).
    Removing fsl_dmamux.o(i.DMAMUX_Deinit), (32 bytes).
    Removing fsl_edma.o(.rev16_text), (4 bytes).
    Removing fsl_edma.o(.revsh_text), (4 bytes).
    Removing fsl_edma.o(.rrx_text), (6 bytes).
    Removing fsl_edma.o(i.DMA0_0_4_DriverIRQHandler), (56 bytes).
    Removing fsl_edma.o(i.DMA0_10_14_DriverIRQHandler), (56 bytes).
    Removing fsl_edma.o(i.DMA0_11_15_DriverIRQHandler), (56 bytes).
    Removing fsl_edma.o(i.DMA0_16_20_DriverIRQHandler), (56 bytes).
    Removing fsl_edma.o(i.DMA0_17_21_DriverIRQHandler), (56 bytes).
    Removing fsl_edma.o(i.DMA0_18_22_DriverIRQHandler), (56 bytes).
    Removing fsl_edma.o(i.DMA0_19_23_DriverIRQHandler), (56 bytes).
    Removing fsl_edma.o(i.DMA0_1_5_DriverIRQHandler), (56 bytes).
    Removing fsl_edma.o(i.DMA0_24_28_DriverIRQHandler), (56 bytes).
    Removing fsl_edma.o(i.DMA0_25_29_DriverIRQHandler), (56 bytes).
    Removing fsl_edma.o(i.DMA0_26_30_DriverIRQHandler), (56 bytes).
    Removing fsl_edma.o(i.DMA0_27_31_DriverIRQHandler), (56 bytes).
    Removing fsl_edma.o(i.DMA0_2_6_DriverIRQHandler), (56 bytes).
    Removing fsl_edma.o(i.DMA0_3_7_DriverIRQHandler), (56 bytes).
    Removing fsl_edma.o(i.DMA0_8_12_DriverIRQHandler), (56 bytes).
    Removing fsl_edma.o(i.DMA0_9_13_DriverIRQHandler), (56 bytes).
    Removing fsl_edma.o(i.DMA0_DriverIRQHandler), (16 bytes).
    Removing fsl_edma.o(i.DMA10_DriverIRQHandler), (16 bytes).
    Removing fsl_edma.o(i.DMA11_DriverIRQHandler), (16 bytes).
    Removing fsl_edma.o(i.DMA12_DriverIRQHandler), (16 bytes).
    Removing fsl_edma.o(i.DMA13_DriverIRQHandler), (16 bytes).
    Removing fsl_edma.o(i.DMA14_DriverIRQHandler), (16 bytes).
    Removing fsl_edma.o(i.DMA15_DriverIRQHandler), (16 bytes).
    Removing fsl_edma.o(i.DMA16_DriverIRQHandler), (16 bytes).
    Removing fsl_edma.o(i.DMA17_DriverIRQHandler), (16 bytes).
    Removing fsl_edma.o(i.DMA18_DriverIRQHandler), (16 bytes).
    Removing fsl_edma.o(i.DMA19_DriverIRQHandler), (16 bytes).
    Removing fsl_edma.o(i.DMA1_DriverIRQHandler), (16 bytes).
    Removing fsl_edma.o(i.DMA20_DriverIRQHandler), (16 bytes).
    Removing fsl_edma.o(i.DMA21_DriverIRQHandler), (16 bytes).
    Removing fsl_edma.o(i.DMA22_DriverIRQHandler), (16 bytes).
    Removing fsl_edma.o(i.DMA23_DriverIRQHandler), (16 bytes).
    Removing fsl_edma.o(i.DMA24_DriverIRQHandler), (16 bytes).
    Removing fsl_edma.o(i.DMA25_DriverIRQHandler), (16 bytes).
    Removing fsl_edma.o(i.DMA26_DriverIRQHandler), (16 bytes).
    Removing fsl_edma.o(i.DMA27_DriverIRQHandler), (16 bytes).
    Removing fsl_edma.o(i.DMA28_DriverIRQHandler), (16 bytes).
    Removing fsl_edma.o(i.DMA29_DriverIRQHandler), (16 bytes).
    Removing fsl_edma.o(i.DMA2_DriverIRQHandler), (16 bytes).
    Removing fsl_edma.o(i.DMA30_DriverIRQHandler), (16 bytes).
    Removing fsl_edma.o(i.DMA31_DriverIRQHandler), (16 bytes).
    Removing fsl_edma.o(i.DMA3_DriverIRQHandler), (16 bytes).
    Removing fsl_edma.o(i.DMA4_DriverIRQHandler), (16 bytes).
    Removing fsl_edma.o(i.DMA5_DriverIRQHandler), (16 bytes).
    Removing fsl_edma.o(i.DMA6_DriverIRQHandler), (16 bytes).
    Removing fsl_edma.o(i.DMA7_DriverIRQHandler), (16 bytes).
    Removing fsl_edma.o(i.DMA8_DriverIRQHandler), (16 bytes).
    Removing fsl_edma.o(i.DMA9_DriverIRQHandler), (16 bytes).
    Removing fsl_edma.o(i.EDMA_AbortTransfer), (54 bytes).
    Removing fsl_edma.o(i.EDMA_ClearChannelStatusFlags), (120 bytes).
    Removing fsl_edma.o(i.EDMA_Deinit), (32 bytes).
    Removing fsl_edma.o(i.EDMA_DisableChannelInterrupts), (172 bytes).
    Removing fsl_edma.o(i.EDMA_GetRemainingMajorLoopCount), (164 bytes).
    Removing fsl_edma.o(i.EDMA_InstallTCD), (316 bytes).
    Removing fsl_edma.o(i.EDMA_InstallTCDMemory), (140 bytes).
    Removing fsl_edma.o(i.EDMA_PrepareTransfer), (480 bytes).
    Removing fsl_edma.o(i.EDMA_SetBandWidth), (120 bytes).
    Removing fsl_edma.o(i.EDMA_SetChannelLink), (180 bytes).
    Removing fsl_edma.o(i.EDMA_SetMinorOffsetConfig), (192 bytes).
    Removing fsl_edma.o(i.EDMA_SetModulo), (148 bytes).
    Removing fsl_edma.o(i.EDMA_StopTransfer), (80 bytes).
    Removing fsl_edma.o(i.EDMA_SubmitTransfer), (500 bytes).
    Removing fsl_edma.o(i.EDMA_TcdDisableInterrupts), (88 bytes).
    Removing fsl_edma.o(i.EDMA_TcdEnableInterrupts), (88 bytes).
    Removing fsl_edma.o(i.EDMA_TcdSetChannelLink), (296 bytes).
    Removing fsl_edma.o(i.EDMA_TcdSetMinorOffsetConfig), (160 bytes).
    Removing fsl_edma.o(i.EDMA_TcdSetModulo), (148 bytes).
    Removing fsl_edma.o(.conststring), (204 bytes).
    Removing fsl_lpspi_edma.o(.rev16_text), (4 bytes).
    Removing fsl_lpspi_edma.o(.revsh_text), (4 bytes).
    Removing fsl_lpspi_edma.o(.rrx_text), (6 bytes).
    Removing fsl_lpspi_edma.o(i.EDMA_LpspiMasterCallback), (232 bytes).
    Removing fsl_lpspi_edma.o(i.LPSPI_MasterTransferAbortEDMA), (92 bytes).
    Removing fsl_lpspi_edma.o(i.LPSPI_MasterTransferCreateHandleEDMA), (204 bytes).
    Removing fsl_lpspi_edma.o(i.LPSPI_MasterTransferEDMA), (1238 bytes).
    Removing fsl_lpspi_edma.o(i.LPSPI_MasterTransferGetCountEDMA), (120 bytes).
    Removing fsl_lpspi_edma.o(i.LPSPI_SlaveTransferAbortEDMA), (92 bytes).
    Removing fsl_lpspi_edma.o(i.LPSPI_SlaveTransferGetCountEDMA), (116 bytes).
    Removing fingertech_spiconfig.o(.rev16_text), (4 bytes).
    Removing fingertech_spiconfig.o(.revsh_text), (4 bytes).
    Removing fingertech_spiconfig.o(.rrx_text), (6 bytes).
    Removing fingertech_algorithm.o(.rev16_text), (4 bytes).
    Removing fingertech_algorithm.o(.revsh_text), (4 bytes).
    Removing fingertech_algorithm.o(.rrx_text), (6 bytes).
    Removing fingertech_algorithm.o(i.Navi_matResize), (688 bytes).
    Removing fingertech_algorithm.o(i.QuarterPicture), (164 bytes).
    Removing main.o(.rev16_text), (4 bytes).
    Removing main.o(.revsh_text), (4 bytes).
    Removing main.o(.rrx_text), (6 bytes).
    Removing fingertech_i2c_api.o(.rev16_text), (4 bytes).
    Removing fingertech_i2c_api.o(.revsh_text), (4 bytes).
    Removing fingertech_i2c_api.o(.rrx_text), (6 bytes).
    Removing fingertech_flashconfig.o(.rev16_text), (4 bytes).
    Removing fingertech_flashconfig.o(.revsh_text), (4 bytes).
    Removing fingertech_flashconfig.o(.rrx_text), (6 bytes).
    Removing fingertech_flashconfig.o(.data), (32 bytes).
    Removing pis1701.o(.rev16_text), (4 bytes).
    Removing pis1701.o(.revsh_text), (4 bytes).
    Removing pis1701.o(.rrx_text), (6 bytes).
    Removing pis1701.o(i.PIS1701_config_exposureGain), (16 bytes).
    Removing fsl_clock.o(.rev16_text), (4 bytes).
    Removing fsl_clock.o(.revsh_text), (4 bytes).
    Removing fsl_clock.o(.rrx_text), (6 bytes).
    Removing fsl_clock.o(i.CLOCK_DeinitArmPll), (16 bytes).
    Removing fsl_clock.o(i.CLOCK_DeinitAudioPll), (16 bytes).
    Removing fsl_clock.o(i.CLOCK_DeinitEnetPll), (16 bytes).
    Removing fsl_clock.o(i.CLOCK_DeinitExternalClk), (16 bytes).
    Removing fsl_clock.o(i.CLOCK_DeinitRcOsc24M), (24 bytes).
    Removing fsl_clock.o(i.CLOCK_DeinitSysPfd), (28 bytes).
    Removing fsl_clock.o(i.CLOCK_DeinitSysPll), (16 bytes).
    Removing fsl_clock.o(i.CLOCK_DeinitUsb1Pfd), (28 bytes).
    Removing fsl_clock.o(i.CLOCK_DeinitUsb1Pll), (12 bytes).
    Removing fsl_clock.o(i.CLOCK_DeinitUsb2Pll), (12 bytes).
    Removing fsl_clock.o(i.CLOCK_DeinitVideoPll), (16 bytes).
    Removing fsl_clock.o(i.CLOCK_DisableUsbhs0PhyPllClock), (36 bytes).
    Removing fsl_clock.o(i.CLOCK_DisableUsbhs1PhyPllClock), (36 bytes).
    Removing fsl_clock.o(i.CLOCK_EnableUsbhs0Clock), (104 bytes).
    Removing fsl_clock.o(i.CLOCK_EnableUsbhs0PhyPllClock), (88 bytes).
    Removing fsl_clock.o(i.CLOCK_EnableUsbhs1Clock), (104 bytes).
    Removing fsl_clock.o(i.CLOCK_EnableUsbhs1PhyPllClock), (60 bytes).
    Removing fsl_clock.o(i.CLOCK_InitAudioPll), (200 bytes).
    Removing fsl_clock.o(i.CLOCK_InitEnetPll), (108 bytes).
    Removing fsl_clock.o(i.CLOCK_InitExternalClk), (132 bytes).
    Removing fsl_clock.o(i.CLOCK_InitRcOsc24M), (24 bytes).
    Removing fsl_clock.o(i.CLOCK_InitSysPfd), (60 bytes).
    Removing fsl_clock.o(i.CLOCK_InitSysPll), (88 bytes).
    Removing fsl_clock.o(i.CLOCK_InitUsb1Pfd), (56 bytes).
    Removing fsl_clock.o(i.CLOCK_InitUsb1Pll), (88 bytes).
    Removing fsl_clock.o(i.CLOCK_InitUsb2Pll), (88 bytes).
    Removing fsl_clock.o(i.CLOCK_InitVideoPll), (204 bytes).
    Removing fsl_clock.o(i.CLOCK_SwitchOsc), (24 bytes).
    Removing fsl_dcdc.o(.rev16_text), (4 bytes).
    Removing fsl_dcdc.o(.revsh_text), (4 bytes).
    Removing fsl_dcdc.o(.rrx_text), (6 bytes).
    Removing fsl_dcdc.o(i.CLOCK_ControlGate), (108 bytes).
    Removing fsl_dcdc.o(i.DCDC_AdjustTargetVoltage), (54 bytes).
    Removing fsl_dcdc.o(i.DCDC_BootIntoCCM), (26 bytes).
    Removing fsl_dcdc.o(i.DCDC_BootIntoDCM), (32 bytes).
    Removing fsl_dcdc.o(i.DCDC_Deinit), (32 bytes).
    Removing fsl_dcdc.o(i.DCDC_GetDefaultDetectionConfig), (92 bytes).
    Removing fsl_dcdc.o(i.DCDC_GetDefaultLoopControlConfig), (84 bytes).
    Removing fsl_dcdc.o(i.DCDC_GetDefaultLowPowerConfig), (76 bytes).
    Removing fsl_dcdc.o(i.DCDC_GetInstance), (116 bytes).
    Removing fsl_dcdc.o(i.DCDC_GetstatusFlags), (22 bytes).
    Removing fsl_dcdc.o(i.DCDC_Init), (32 bytes).
    Removing fsl_dcdc.o(i.DCDC_ResetCurrentAlertSignal), (22 bytes).
    Removing fsl_dcdc.o(i.DCDC_SetClockSource), (56 bytes).
    Removing fsl_dcdc.o(i.DCDC_SetDetectionConfig), (152 bytes).
    Removing fsl_dcdc.o(i.DCDC_SetInternalRegulatorConfig), (96 bytes).
    Removing fsl_dcdc.o(i.DCDC_SetLoopControlConfig), (156 bytes).
    Removing fsl_dcdc.o(i.DCDC_SetLowPowerConfig), (116 bytes).
    Removing fsl_dcdc.o(i.DCDC_SetMinPowerConfig), (84 bytes).
    Removing fsl_dcdc.o(.constdata), (6 bytes).
    Removing fsl_common.o(.rev16_text), (4 bytes).
    Removing fsl_common.o(.revsh_text), (4 bytes).
    Removing fsl_common.o(.rrx_text), (6 bytes).
    Removing fsl_common.o(i.SDK_Free), (30 bytes).
    Removing fsl_common.o(i.SDK_Malloc), (76 bytes).
    Removing fsl_lpspi.o(.rev16_text), (4 bytes).
    Removing fsl_lpspi.o(.revsh_text), (4 bytes).
    Removing fsl_lpspi.o(.rrx_text), (6 bytes).
    Removing fsl_lpspi.o(i.EnableIRQ), (44 bytes).
    Removing fsl_lpspi.o(i.LPSPI_ClearStatusFlags), (4 bytes).
    Removing fsl_lpspi.o(i.LPSPI_CombineWriteData), (260 bytes).
    Removing fsl_lpspi.o(i.LPSPI_Deinit), (40 bytes).
    Removing fsl_lpspi.o(i.LPSPI_DisableInterrupts), (8 bytes).
    Removing fsl_lpspi.o(i.LPSPI_EnableInterrupts), (8 bytes).
    Removing fsl_lpspi.o(i.LPSPI_FlushFifo), (16 bytes).
    Removing fsl_lpspi.o(i.LPSPI_GetRxFifoCount), (10 bytes).
    Removing fsl_lpspi.o(i.LPSPI_GetRxFifoSize), (12 bytes).
    Removing fsl_lpspi.o(i.LPSPI_GetStatusFlags), (6 bytes).
    Removing fsl_lpspi.o(i.LPSPI_GetTxFifoCount), (10 bytes).
    Removing fsl_lpspi.o(i.LPSPI_MasterGetDefaultConfig), (136 bytes).
    Removing fsl_lpspi.o(i.LPSPI_MasterInit), (300 bytes).
    Removing fsl_lpspi.o(i.LPSPI_MasterSetBaudRate), (220 bytes).
    Removing fsl_lpspi.o(i.LPSPI_MasterSetDelayScaler), (108 bytes).
    Removing fsl_lpspi.o(i.LPSPI_MasterSetDelayTimes), (360 bytes).
    Removing fsl_lpspi.o(i.LPSPI_MasterTransferAbort), (92 bytes).
    Removing fsl_lpspi.o(i.LPSPI_MasterTransferBlocking), (604 bytes).
    Removing fsl_lpspi.o(i.LPSPI_MasterTransferComplete), (96 bytes).
    Removing fsl_lpspi.o(i.LPSPI_MasterTransferCreateHandle), (116 bytes).
    Removing fsl_lpspi.o(i.LPSPI_MasterTransferFillUpTxFifo), (204 bytes).
    Removing fsl_lpspi.o(i.LPSPI_MasterTransferGetCount), (112 bytes).
    Removing fsl_lpspi.o(i.LPSPI_MasterTransferHandleIRQ), (308 bytes).
    Removing fsl_lpspi.o(i.LPSPI_MasterTransferNonBlocking), (556 bytes).
    Removing fsl_lpspi.o(i.LPSPI_ReadData), (6 bytes).
    Removing fsl_lpspi.o(i.LPSPI_SeparateReadData), (232 bytes).
    Removing fsl_lpspi.o(i.LPSPI_SlaveGetDefaultConfig), (88 bytes).
    Removing fsl_lpspi.o(i.LPSPI_SlaveTransferAbort), (88 bytes).
    Removing fsl_lpspi.o(i.LPSPI_SlaveTransferComplete), (120 bytes).
    Removing fsl_lpspi.o(i.LPSPI_SlaveTransferCreateHandle), (116 bytes).
    Removing fsl_lpspi.o(i.LPSPI_SlaveTransferFillUpTxFifo), (136 bytes).
    Removing fsl_lpspi.o(i.LPSPI_SlaveTransferGetCount), (112 bytes).
    Removing fsl_lpspi.o(i.LPSPI_SlaveTransferHandleIRQ), (436 bytes).
    Removing fsl_lpspi.o(i.LPSPI_SlaveTransferNonBlocking), (552 bytes).
    Removing fsl_lpspi.o(i.LPSPI_WriteData), (4 bytes).
    Removing fsl_lpuart.o(.rev16_text), (4 bytes).
    Removing fsl_lpuart.o(.revsh_text), (4 bytes).
    Removing fsl_lpuart.o(.rrx_text), (6 bytes).
    Removing fsl_lpuart.o(i.CLOCK_ControlGate), (108 bytes).
    Removing fsl_lpuart.o(i.LPUART_Deinit), (88 bytes).
    Removing fsl_lpuart.o(i.LPUART_DisableInterrupts), (44 bytes).
    Removing fsl_lpuart.o(i.LPUART_EnableInterrupts), (44 bytes).
    Removing fsl_lpuart.o(i.LPUART_GetDefaultConfig), (100 bytes).
    Removing fsl_lpuart.o(i.LPUART_GetEnabledInterrupts), (32 bytes).
    Removing fsl_lpuart.o(i.LPUART_GetInstance), (124 bytes).
    Removing fsl_lpuart.o(i.LPUART_Init), (748 bytes).
    Removing fsl_lpuart.o(i.LPUART_ReadNonBlocking), (128 bytes).
    Removing fsl_lpuart.o(i.LPUART_SetBaudRate), (284 bytes).
    Removing fsl_lpuart.o(i.LPUART_TransferAbortReceive), (88 bytes).
    Removing fsl_lpuart.o(i.LPUART_TransferAbortSend), (84 bytes).
    Removing fsl_lpuart.o(i.LPUART_TransferCreateHandle), (212 bytes).
    Removing fsl_lpuart.o(i.LPUART_TransferGetReceiveCount), (112 bytes).
    Removing fsl_lpuart.o(i.LPUART_TransferGetRxRingBufferLength), (92 bytes).
    Removing fsl_lpuart.o(i.LPUART_TransferGetSendCount), (112 bytes).
    Removing fsl_lpuart.o(i.LPUART_TransferHandleErrorIRQ), (2 bytes).
    Removing fsl_lpuart.o(i.LPUART_TransferHandleIRQ), (632 bytes).
    Removing fsl_lpuart.o(i.LPUART_TransferIsRxRingBufferFull), (88 bytes).
    Removing fsl_lpuart.o(i.LPUART_TransferReceiveNonBlocking), (368 bytes).
    Removing fsl_lpuart.o(i.LPUART_TransferSendNonBlocking), (204 bytes).
    Removing fsl_lpuart.o(i.LPUART_TransferStartRingBuffer), (120 bytes).
    Removing fsl_lpuart.o(i.LPUART_TransferStopRingBuffer), (92 bytes).
    Removing fsl_lpuart.o(i.LPUART_WriteNonBlocking), (84 bytes).
    Removing fsl_lpuart.o(.constdata), (72 bytes).
    Removing fsl_lpi2c.o(.rev16_text), (4 bytes).
    Removing fsl_lpi2c.o(.revsh_text), (4 bytes).
    Removing fsl_lpi2c.o(.rrx_text), (6 bytes).
    Removing fsl_lpi2c.o(i.CLOCK_DisableClock), (14 bytes).
    Removing fsl_lpi2c.o(i.EnableIRQ), (44 bytes).
    Removing fsl_lpi2c.o(i.LPI2C_InitTransferStateMachine), (194 bytes).
    Removing fsl_lpi2c.o(i.LPI2C_MasterConfigureDataMatch), (68 bytes).
    Removing fsl_lpi2c.o(i.LPI2C_MasterDeinit), (36 bytes).
    Removing fsl_lpi2c.o(i.LPI2C_MasterDisableInterrupts), (8 bytes).
    Removing fsl_lpi2c.o(i.LPI2C_MasterEnableInterrupts), (8 bytes).
    Removing fsl_lpi2c.o(i.LPI2C_MasterStart), (72 bytes).
    Removing fsl_lpi2c.o(i.LPI2C_MasterTransferAbort), (40 bytes).
    Removing fsl_lpi2c.o(i.LPI2C_MasterTransferCreateHandle), (140 bytes).
    Removing fsl_lpi2c.o(i.LPI2C_MasterTransferGetCount), (164 bytes).
    Removing fsl_lpi2c.o(i.LPI2C_MasterTransferHandleIRQ), (70 bytes).
    Removing fsl_lpi2c.o(i.LPI2C_MasterTransferNonBlocking), (260 bytes).
    Removing fsl_lpi2c.o(i.LPI2C_RunTransferStateMachine), (416 bytes).
    Removing fsl_lpi2c.o(i.LPI2C_SlaveCheckAndClearError), (104 bytes).
    Removing fsl_lpi2c.o(i.LPI2C_SlaveClearStatusFlags), (6 bytes).
    Removing fsl_lpi2c.o(i.LPI2C_SlaveDeinit), (36 bytes).
    Removing fsl_lpi2c.o(i.LPI2C_SlaveDisableInterrupts), (12 bytes).
    Removing fsl_lpi2c.o(i.LPI2C_SlaveGetDefaultConfig), (48 bytes).
    Removing fsl_lpi2c.o(i.LPI2C_SlaveGetStatusFlags), (8 bytes).
    Removing fsl_lpi2c.o(i.LPI2C_SlaveInit), (276 bytes).
    Removing fsl_lpi2c.o(i.LPI2C_SlaveReceive), (180 bytes).
    Removing fsl_lpi2c.o(i.LPI2C_SlaveReset), (14 bytes).
    Removing fsl_lpi2c.o(i.LPI2C_SlaveSend), (180 bytes).
    Removing fsl_lpi2c.o(i.LPI2C_SlaveTransferAbort), (96 bytes).
    Removing fsl_lpi2c.o(i.LPI2C_SlaveTransferCreateHandle), (148 bytes).
    Removing fsl_lpi2c.o(i.LPI2C_SlaveTransferGetCount), (92 bytes).
    Removing fsl_lpi2c.o(i.LPI2C_SlaveTransferHandleIRQ), (392 bytes).
    Removing fsl_lpi2c.o(i.LPI2C_SlaveTransferNonBlocking), (168 bytes).
    Removing fsl_elcdif.o(.rev16_text), (4 bytes).
    Removing fsl_elcdif.o(.revsh_text), (4 bytes).
    Removing fsl_elcdif.o(.rrx_text), (6 bytes).
    Removing fsl_elcdif.o(i.CLOCK_ControlGate), (108 bytes).
    Removing fsl_elcdif.o(i.CLOCK_DisableClock), (14 bytes).
    Removing fsl_elcdif.o(i.CLOCK_EnableClock), (14 bytes).
    Removing fsl_elcdif.o(i.ELCDIF_Deinit), (48 bytes).
    Removing fsl_elcdif.o(i.ELCDIF_GetInstance), (124 bytes).
    Removing fsl_elcdif.o(i.ELCDIF_Reset), (66 bytes).
    Removing fsl_elcdif.o(i.ELCDIF_RgbModeGetDefaultConfig), (112 bytes).
    Removing fsl_elcdif.o(i.ELCDIF_RgbModeInit), (316 bytes).
    Removing fsl_elcdif.o(i.ELCDIF_RgbModeStop), (20 bytes).
    Removing fsl_elcdif.o(i.ELCDIF_UpdateLut), (64 bytes).
    Removing fsl_elcdif.o(.constdata), (8 bytes).
    Removing fsl_elcdif.o(.data), (40 bytes).
    Removing fsl_gpio.o(.rev16_text), (4 bytes).
    Removing fsl_gpio.o(.revsh_text), (4 bytes).
    Removing fsl_gpio.o(.rrx_text), (6 bytes).
    Removing fsl_csi.o(.rev16_text), (4 bytes).
    Removing fsl_csi.o(.revsh_text), (4 bytes).
    Removing fsl_csi.o(.rrx_text), (6 bytes).
    Removing fsl_csi.o(i.CSI_Deinit), (40 bytes).
    Removing fsl_csi.o(i.CSI_DisableInterrupts), (32 bytes).
    Removing fsl_csi.o(i.CSI_DriverIRQHandler), (28 bytes).
    Removing fsl_csi.o(i.CSI_Start), (24 bytes).
    Removing fsl_csi.o(i.CSI_TransferCreateHandle), (164 bytes).
    Removing fsl_csi.o(i.CSI_TransferGetEmptyBufferCount), (16 bytes).
    Removing fsl_csi.o(i.CSI_TransferGetFullBuffer), (56 bytes).
    Removing fsl_csi.o(i.CSI_TransferGetQueueDelta), (16 bytes).
    Removing fsl_csi.o(i.CSI_TransferHandleIRQ), (164 bytes).
    Removing fsl_csi.o(i.CSI_TransferIncreaseQueueIdx), (12 bytes).
    Removing fsl_csi.o(i.CSI_TransferLoadBufferToDevice), (44 bytes).
    Removing fsl_csi.o(i.CSI_TransferStart), (148 bytes).
    Removing fsl_csi.o(i.CSI_TransferStop), (92 bytes).
    Removing fsl_csi.o(i.CSI_TransferSubmitEmptyBuffer), (106 bytes).
    Removing fsl_csi.o(.data), (8 bytes).
    Removing fsl_cache.o(.rev16_text), (4 bytes).
    Removing fsl_cache.o(.revsh_text), (4 bytes).
    Removing fsl_cache.o(.rrx_text), (6 bytes).
    Removing fsl_cache.o(i.DCACHE_CleanByRange), (32 bytes).
    Removing fsl_cache.o(i.DCACHE_CleanInvalidateByRange), (32 bytes).
    Removing fsl_cache.o(i.DCACHE_InvalidateByRange), (32 bytes).
    Removing fsl_cache.o(i.ICACHE_InvalidateByRange), (16 bytes).
    Removing fsl_cache.o(i.L1CACHE_InvalidateICacheByRange), (84 bytes).
    Removing fsl_cache.o(i.SCB_CleanDCache_by_Addr), (76 bytes).
    Removing fsl_cache.o(i.SCB_CleanInvalidateDCache_by_Addr), (76 bytes).
    Removing fsl_cache.o(i.SCB_InvalidateDCache_by_Addr), (76 bytes).
    Removing fsl_flexspi.o(.rev16_text), (4 bytes).
    Removing fsl_flexspi.o(.revsh_text), (4 bytes).
    Removing fsl_flexspi.o(.rrx_text), (6 bytes).
    Removing system_mimxrt1052.o(.rev16_text), (4 bytes).
    Removing system_mimxrt1052.o(.revsh_text), (4 bytes).
    Removing system_mimxrt1052.o(.rrx_text), (6 bytes).
    Removing system_mimxrt1052.o(i.SystemCoreClockUpdate), (412 bytes).
    Removing evkbimxrt1050_flexspi_nor_config.o(.rev16_text), (4 bytes).
    Removing evkbimxrt1050_flexspi_nor_config.o(.revsh_text), (4 bytes).
    Removing evkbimxrt1050_flexspi_nor_config.o(.rrx_text), (6 bytes).
    Removing fsl_flexspi_nor_boot.o(.rev16_text), (4 bytes).
    Removing fsl_flexspi_nor_boot.o(.revsh_text), (4 bytes).
    Removing fsl_flexspi_nor_boot.o(.rrx_text), (6 bytes).
    Removing fsl_io.o(.rev16_text), (4 bytes).
    Removing fsl_io.o(.revsh_text), (4 bytes).
    Removing fsl_io.o(.rrx_text), (6 bytes).
    Removing fsl_io.o(i.IO_Deinit), (56 bytes).
    Removing fsl_io.o(i.IO_Init), (180 bytes).
    Removing fsl_io.o(i.IO_WaitIdle), (44 bytes).
    Removing fsl_log.o(.rev16_text), (4 bytes).
    Removing fsl_log.o(.revsh_text), (4 bytes).
    Removing fsl_log.o(.rrx_text), (6 bytes).
    Removing fsl_log.o(i.LOG_Deinit), (8 bytes).
    Removing fsl_log.o(i.LOG_Init), (36 bytes).
    Removing fsl_log.o(i.LOG_ReadCharacter), (92 bytes).
    Removing fsl_log.o(i.LOG_ReadLine), (144 bytes).
    Removing fsl_log.o(i.LOG_ReadOneCharacter), (24 bytes).
    Removing fsl_log.o(i.LOG_WaitIdle), (10 bytes).
    Removing fsl_str.o(.rev16_text), (4 bytes).
    Removing fsl_str.o(.revsh_text), (4 bytes).
    Removing fsl_str.o(.rrx_text), (6 bytes).
    Removing fsl_str.o(i.ScanIgnoreWhiteSpace), (50 bytes).
    Removing fsl_str.o(i.StrFormatScanf), (980 bytes).
    Removing fsl_assert.o(.rev16_text), (4 bytes).
    Removing fsl_assert.o(.revsh_text), (4 bytes).
    Removing fsl_assert.o(.rrx_text), (6 bytes).
    Removing fsl_debug_console.o(.rev16_text), (4 bytes).
    Removing fsl_debug_console.o(.revsh_text), (4 bytes).
    Removing fsl_debug_console.o(.rrx_text), (6 bytes).
    Removing fsl_debug_console.o(i.DbgConsole_Deinit), (10 bytes).
    Removing fsl_debug_console.o(i.DbgConsole_Flush), (8 bytes).
    Removing fsl_debug_console.o(i.DbgConsole_Getchar), (14 bytes).
    Removing fsl_debug_console.o(i.DbgConsole_Init), (128 bytes).
    Removing fsl_debug_console.o(i.DbgConsole_Putchar), (12 bytes).
    Removing fsl_debug_console.o(i.DbgConsole_Scanf), (52 bytes).
    Removing fsl_debug_console.o(i.fgetc), (16 bytes).
    Removing dadd.o(.text), (334 bytes).
    Removing dmul.o(.text), (228 bytes).
    Removing ddiv.o(.text), (222 bytes).
    Removing dfixul.o(.text), (48 bytes).
    Removing cdrcmple.o(.text), (48 bytes).
    Removing depilogue.o(.text), (186 bytes).

406 unused section(s) (total 31442 bytes) removed from the image.

==============================================================================

Adding Veneers to the image

    Adding TT veneer (10 bytes, Long) for call to 'FLEXSPI_UpdateLUT' from fingertech_flashconfig.o(i.FingerTech_FlashConfig).
    Adding TT veneer (10 bytes, Long) for call to 'flexspi_nor_get_vendor_id' from fingertech_flashconfig.o(i.FingerTech_FlashConfig).
    Adding TT veneer (10 bytes, Long) for call to 'flexspi_nor_flash_read_sector' from fingertech_flashconfig.o(i.FingerTech_FlashConfig).
    Adding TT veneer (10 bytes, Long) for call to 'flexspi_nor_flash_erase_sector' from fingertech_flashconfig.o(i.FingerTech_FlashConfig).
    Adding TT veneer (10 bytes, Long) for call to 'flexspi_nor_flash_page_program' from fingertech_flashconfig.o(i.FingerTech_FlashConfig).
    Adding TT veneer (10 bytes, Long) for call to '__aeabi_assert' from fsl_flexspi.o(NonCacheable).
    Adding TT veneer (10 bytes, Long) for call to 'FLEXSPI_GetBusIdleStatus' from fsl_flexspi.o(NonCacheable).
    Adding TT veneer (10 bytes, Long) for call to 'FLEXSPI_TransferAbort' from fsl_flexspi.o(NonCacheable).

8 Veneer(s) (total 80 bytes) added to the image.

==============================================================================

Image Symbol Table

    Local Symbols

    Symbol Name                              Value     Ov Type        Size  Object(Section)

    ../clib/../cmprslib/zerorunl2.c          0x00000000   Number         0  __dczerorl2.o ABSOLUTE
    ../clib/microlib/division.c              0x00000000   Number         0  uldiv.o ABSOLUTE
    ../clib/microlib/division.c              0x00000000   Number         0  ldiv.o ABSOLUTE
    ../clib/microlib/division.c              0x00000000   Number         0  uidiv.o ABSOLUTE
    ../clib/microlib/init/entry.s            0x00000000   Number         0  entry10b.o ABSOLUTE
    ../clib/microlib/init/entry.s            0x00000000   Number         0  entry4.o ABSOLUTE
    ../clib/microlib/init/entry.s            0x00000000   Number         0  entry5.o ABSOLUTE
    ../clib/microlib/init/entry.s            0x00000000   Number         0  entry9b.o ABSOLUTE
    ../clib/microlib/init/entry.s            0x00000000   Number         0  entry10a.o ABSOLUTE
    ../clib/microlib/init/entry.s            0x00000000   Number         0  entry7a.o ABSOLUTE
    ../clib/microlib/init/entry.s            0x00000000   Number         0  entry7b.o ABSOLUTE
    ../clib/microlib/init/entry.s            0x00000000   Number         0  entry8a.o ABSOLUTE
    ../clib/microlib/init/entry.s            0x00000000   Number         0  entry11b.o ABSOLUTE
    ../clib/microlib/init/entry.s            0x00000000   Number         0  entry11a.o ABSOLUTE
    ../clib/microlib/init/entry.s            0x00000000   Number         0  entry.o ABSOLUTE
    ../clib/microlib/init/entry.s            0x00000000   Number         0  entry8b.o ABSOLUTE
    ../clib/microlib/init/entry.s            0x00000000   Number         0  entry9a.o ABSOLUTE
    ../clib/microlib/longlong.c              0x00000000   Number         0  llshl.o ABSOLUTE
    ../clib/microlib/longlong.c              0x00000000   Number         0  llushr.o ABSOLUTE
    ../clib/microlib/longlong.c              0x00000000   Number         0  llsshr.o ABSOLUTE
    ../clib/microlib/malloc/malloc.c         0x00000000   Number         0  mallocr2.o ABSOLUTE
    ../clib/microlib/malloc/malloc.c         0x00000000   Number         0  malloca2.o ABSOLUTE
    ../clib/microlib/malloc/malloc.c         0x00000000   Number         0  mallocra2.o ABSOLUTE
    ../clib/microlib/malloc/malloc.c         0x00000000   Number         0  malloc2.o ABSOLUTE
    ../clib/microlib/malloc/mvars.c          0x00000000   Number         0  mvars.o ABSOLUTE
    ../clib/microlib/printf/printf.c         0x00000000   Number         0  printfb.o ABSOLUTE
    ../clib/microlib/printf/printf.c         0x00000000   Number         0  printf2.o ABSOLUTE
    ../clib/microlib/printf/printf.c         0x00000000   Number         0  printf7.o ABSOLUTE
    ../clib/microlib/printf/printf.c         0x00000000   Number         0  printf5.o ABSOLUTE
    ../clib/microlib/printf/printf.c         0x00000000   Number         0  printf4.o ABSOLUTE
    ../clib/microlib/printf/printf.c         0x00000000   Number         0  printf8.o ABSOLUTE
    ../clib/microlib/printf/printf.c         0x00000000   Number         0  printf3.o ABSOLUTE
    ../clib/microlib/printf/printf.c         0x00000000   Number         0  printf1.o ABSOLUTE
    ../clib/microlib/printf/printf.c         0x00000000   Number         0  printf6.o ABSOLUTE
    ../clib/microlib/printf/printf.c         0x00000000   Number         0  printf0.o ABSOLUTE
    ../clib/microlib/printf/printf.c         0x00000000   Number         0  printfa.o ABSOLUTE
    ../clib/microlib/printf/stubs.s          0x00000000   Number         0  stubs.o ABSOLUTE
    ../clib/microlib/string/memcpy.c         0x00000000   Number         0  memcpyb.o ABSOLUTE
    ../clib/microlib/string/memcpy.c         0x00000000   Number         0  memcpya.o ABSOLUTE
    ../clib/microlib/string/memset.c         0x00000000   Number         0  memseta.o ABSOLUTE
    ../clib/microlib/string/strlen.c         0x00000000   Number         0  strlen.o ABSOLUTE
    ../clib/microlib/stubs.s                 0x00000000   Number         0  iusefp.o ABSOLUTE
    ../fplib/microlib/fpadd.c                0x00000000   Number         0  dadd.o ABSOLUTE
    ../fplib/microlib/fpdiv.c                0x00000000   Number         0  ddiv.o ABSOLUTE
    ../fplib/microlib/fpepilogue.c           0x00000000   Number         0  depilogue.o ABSOLUTE
    ../fplib/microlib/fpfix.c                0x00000000   Number         0  dfixul.o ABSOLUTE
    ../fplib/microlib/fpmul.c                0x00000000   Number         0  dmul.o ABSOLUTE
    ..\\nxplib\\driver\\fsl_cache.c          0x00000000   Number         0  fsl_cache.o ABSOLUTE
    ..\\nxplib\\driver\\fsl_clock.c          0x00000000   Number         0  fsl_clock.o ABSOLUTE
    ..\\nxplib\\driver\\fsl_common.c         0x00000000   Number         0  fsl_common.o ABSOLUTE
    ..\\nxplib\\driver\\fsl_csi.c            0x00000000   Number         0  fsl_csi.o ABSOLUTE
    ..\\nxplib\\driver\\fsl_dcdc.c           0x00000000   Number         0  fsl_dcdc.o ABSOLUTE
    ..\\nxplib\\driver\\fsl_elcdif.c         0x00000000   Number         0  fsl_elcdif.o ABSOLUTE
    ..\\nxplib\\driver\\fsl_flexspi.c        0x00000000   Number         0  fsl_flexspi.o ABSOLUTE
    ..\\nxplib\\driver\\fsl_gpio.c           0x00000000   Number         0  fsl_gpio.o ABSOLUTE
    ..\\nxplib\\driver\\fsl_lpi2c.c          0x00000000   Number         0  fsl_lpi2c.o ABSOLUTE
    ..\\nxplib\\driver\\fsl_lpspi.c          0x00000000   Number         0  fsl_lpspi.o ABSOLUTE
    ..\\nxplib\\driver\\fsl_lpuart.c         0x00000000   Number         0  fsl_lpuart.o ABSOLUTE
    ..\\nxplib\\system_MIMXRT1052.c          0x00000000   Number         0  system_mimxrt1052.o ABSOLUTE
    ..\\nxplib\\utilities\\fsl_assert.c      0x00000000   Number         0  fsl_assert.o ABSOLUTE
    ..\\nxplib\\utilities\\fsl_debug_console.c 0x00000000   Number         0  fsl_debug_console.o ABSOLUTE
    ..\\nxplib\\utilities\\io\\fsl_io.c      0x00000000   Number         0  fsl_io.o ABSOLUTE
    ..\\nxplib\\utilities\\log\\fsl_log.c    0x00000000   Number         0  fsl_log.o ABSOLUTE
    ..\\nxplib\\utilities\\str\\fsl_str.c    0x00000000   Number         0  fsl_str.o ABSOLUTE
    ..\\nxplib\\xip\\evkbimxrt1050_flexspi_nor_config.c 0x00000000   Number         0  evkbimxrt1050_flexspi_nor_config.o ABSOLUTE
    ..\\nxplib\\xip\\fsl_flexspi_nor_boot.c  0x00000000   Number         0  fsl_flexspi_nor_boot.o ABSOLUTE
    ..\\user\\src\\FingerTech_Exit.c         0x00000000   Number         0  fingertech_exit.o ABSOLUTE
    ..\\user\\src\\FingerTech_FlashConfig.c  0x00000000   Number         0  fingertech_flashconfig.o ABSOLUTE
    ..\\user\\src\\FingerTech_I2C_API.c      0x00000000   Number         0  fingertech_i2c_api.o ABSOLUTE
    ..\\user\\src\\FingerTech_algorithm.c    0x00000000   Number         0  fingertech_algorithm.o ABSOLUTE
    ..\\user\\src\\FingerTech_camera.c       0x00000000   Number         0  fingertech_camera.o ABSOLUTE
    ..\\user\\src\\FingerTech_common.c       0x00000000   Number         0  fingertech_common.o ABSOLUTE
    ..\\user\\src\\FingerTech_spiConfig.c    0x00000000   Number         0  fingertech_spiconfig.o ABSOLUTE
    ..\\user\\src\\PIS1701.c                 0x00000000   Number         0  pis1701.o ABSOLUTE
    ..\\user\\src\\board.c                   0x00000000   Number         0  board.o ABSOLUTE
    ..\\user\\src\\clock_config.c            0x00000000   Number         0  clock_config.o ABSOLUTE
    ..\\user\\src\\fsl_csi_camera_adapter.c  0x00000000   Number         0  fsl_csi_camera_adapter.o ABSOLUTE
    ..\\user\\src\\fsl_dmamux.c              0x00000000   Number         0  fsl_dmamux.o ABSOLUTE
    ..\\user\\src\\fsl_edma.c                0x00000000   Number         0  fsl_edma.o ABSOLUTE
    ..\\user\\src\\fsl_lpspi_edma.c          0x00000000   Number         0  fsl_lpspi_edma.o ABSOLUTE
    ..\\user\\src\\main.c                    0x00000000   Number         0  main.o ABSOLUTE
    ..\\user\\src\\pin_mux.c                 0x00000000   Number         0  pin_mux.o ABSOLUTE
    ..\nxplib\cmsis\startup_MIMXRT1052.s     0x00000000   Number         0  startup_mimxrt1052.o ABSOLUTE
    ..\nxplib\driver\fsl_cache.c             0x00000000   Number         0  fsl_cache.o ABSOLUTE
    ..\nxplib\driver\fsl_clock.c             0x00000000   Number         0  fsl_clock.o ABSOLUTE
    ..\nxplib\driver\fsl_common.c            0x00000000   Number         0  fsl_common.o ABSOLUTE
    ..\nxplib\driver\fsl_csi.c               0x00000000   Number         0  fsl_csi.o ABSOLUTE
    ..\nxplib\driver\fsl_dcdc.c              0x00000000   Number         0  fsl_dcdc.o ABSOLUTE
    ..\nxplib\driver\fsl_elcdif.c            0x00000000   Number         0  fsl_elcdif.o ABSOLUTE
    ..\nxplib\driver\fsl_flexspi.c           0x00000000   Number         0  fsl_flexspi.o ABSOLUTE
    ..\nxplib\driver\fsl_gpio.c              0x00000000   Number         0  fsl_gpio.o ABSOLUTE
    ..\nxplib\driver\fsl_lpi2c.c             0x00000000   Number         0  fsl_lpi2c.o ABSOLUTE
    ..\nxplib\driver\fsl_lpspi.c             0x00000000   Number         0  fsl_lpspi.o ABSOLUTE
    ..\nxplib\driver\fsl_lpuart.c            0x00000000   Number         0  fsl_lpuart.o ABSOLUTE
    ..\nxplib\system_MIMXRT1052.c            0x00000000   Number         0  system_mimxrt1052.o ABSOLUTE
    ..\nxplib\utilities\fsl_assert.c         0x00000000   Number         0  fsl_assert.o ABSOLUTE
    ..\nxplib\utilities\fsl_debug_console.c  0x00000000   Number         0  fsl_debug_console.o ABSOLUTE
    ..\nxplib\utilities\io\fsl_io.c          0x00000000   Number         0  fsl_io.o ABSOLUTE
    ..\nxplib\utilities\log\fsl_log.c        0x00000000   Number         0  fsl_log.o ABSOLUTE
    ..\nxplib\utilities\str\fsl_str.c        0x00000000   Number         0  fsl_str.o ABSOLUTE
    ..\nxplib\xip\evkbimxrt1050_flexspi_nor_config.c 0x00000000   Number         0  evkbimxrt1050_flexspi_nor_config.o ABSOLUTE
    ..\nxplib\xip\evkbimxrt1050_sdram_ini_dcd.c 0x00000000   Number         0  evkbimxrt1050_sdram_ini_dcd.o ABSOLUTE
    ..\nxplib\xip\fsl_flexspi_nor_boot.c     0x00000000   Number         0  fsl_flexspi_nor_boot.o ABSOLUTE
    ..\user\src\FingerTech_Exit.c            0x00000000   Number         0  fingertech_exit.o ABSOLUTE
    ..\user\src\FingerTech_FlashConfig.c     0x00000000   Number         0  fingertech_flashconfig.o ABSOLUTE
    ..\user\src\FingerTech_I2C_API.c         0x00000000   Number         0  fingertech_i2c_api.o ABSOLUTE
    ..\user\src\FingerTech_algorithm.c       0x00000000   Number         0  fingertech_algorithm.o ABSOLUTE
    ..\user\src\FingerTech_camera.c          0x00000000   Number         0  fingertech_camera.o ABSOLUTE
    ..\user\src\FingerTech_common.c          0x00000000   Number         0  fingertech_common.o ABSOLUTE
    ..\user\src\FingerTech_spiConfig.c       0x00000000   Number         0  fingertech_spiconfig.o ABSOLUTE
    ..\user\src\PIS1701.c                    0x00000000   Number         0  pis1701.o ABSOLUTE
    ..\user\src\board.c                      0x00000000   Number         0  board.o ABSOLUTE
    ..\user\src\clock_config.c               0x00000000   Number         0  clock_config.o ABSOLUTE
    ..\user\src\fsl_csi_camera_adapter.c     0x00000000   Number         0  fsl_csi_camera_adapter.o ABSOLUTE
    ..\user\src\fsl_dmamux.c                 0x00000000   Number         0  fsl_dmamux.o ABSOLUTE
    ..\user\src\fsl_edma.c                   0x00000000   Number         0  fsl_edma.o ABSOLUTE
    ..\user\src\fsl_lpspi_edma.c             0x00000000   Number         0  fsl_lpspi_edma.o ABSOLUTE
    ..\user\src\main.c                       0x00000000   Number         0  main.o ABSOLUTE
    ..\user\src\pin_mux.c                    0x00000000   Number         0  pin_mux.o ABSOLUTE
    cdrcmple.s                               0x00000000   Number         0  cdrcmple.o ABSOLUTE
    dc.s                                     0x00000000   Number         0  dc.o ABSOLUTE
    handlers.s                               0x00000000   Number         0  handlers.o ABSOLUTE
    init.s                                   0x00000000   Number         0  init.o ABSOLUTE
    Cacheable                                0x20200000   Section    100352  fingertech_common.o(Cacheable)
    .boot_hdr.conf                           0x60000000   Section      512  evkbimxrt1050_flexspi_nor_config.o(.boot_hdr.conf)
    .boot_hdr.ivt                            0x60001000   Section       32  fsl_flexspi_nor_boot.o(.boot_hdr.ivt)
    .boot_hdr.boot_data                      0x60001020   Section       16  fsl_flexspi_nor_boot.o(.boot_hdr.boot_data)
    .boot_hdr.dcd_data                       0x60001030   Section     1072  evkbimxrt1050_sdram_ini_dcd.o(.boot_hdr.dcd_data)
    RESET                                    0x60002000   Section     1024  startup_mimxrt1052.o(RESET)
    .ARM.Collect$$$$00000000                 0x60002400   Section        0  entry.o(.ARM.Collect$$$$00000000)
    .ARM.Collect$$$$00000003                 0x60002400   Section        4  entry4.o(.ARM.Collect$$$$00000003)
    .ARM.Collect$$$$00000004                 0x60002404   Section        4  entry5.o(.ARM.Collect$$$$00000004)
    .ARM.Collect$$$$00000008                 0x60002408   Section        0  entry7b.o(.ARM.Collect$$$$00000008)
    .ARM.Collect$$$$0000000A                 0x60002408   Section        0  entry8b.o(.ARM.Collect$$$$0000000A)
    .ARM.Collect$$$$0000000B                 0x60002408   Section        8  entry9a.o(.ARM.Collect$$$$0000000B)
    .ARM.Collect$$$$0000000D                 0x60002410   Section        0  entry10a.o(.ARM.Collect$$$$0000000D)
    .ARM.Collect$$$$0000000F                 0x60002410   Section        0  entry11a.o(.ARM.Collect$$$$0000000F)
    .ARM.Collect$$$$00002714                 0x60002410   Section        4  entry4.o(.ARM.Collect$$$$00002714)
    __lit__00000000                          0x60002410   Data           4  entry4.o(.ARM.Collect$$$$00002714)
    .text                                    0x60002414   Section      472  startup_mimxrt1052.o(.text)
    $v0                                      0x60002414   Number         0  startup_mimxrt1052.o(.text)
    .text                                    0x600025ec   Section        0  uldiv.o(.text)
    .text                                    0x6000264e   Section        0  memcpya.o(.text)
    .text                                    0x60002672   Section        0  memseta.o(.text)
    .text                                    0x60002696   Section        0  strlen.o(.text)
    .text                                    0x600026a4   Section        0  llshl.o(.text)
    .text                                    0x600026c2   Section        0  llushr.o(.text)
    .text                                    0x600026e4   Section       36  init.o(.text)
    .text                                    0x60002708   Section        0  __dczerorl2.o(.text)
    fingertech_flashop                       0x60002790   Section        0  fsl_flexspi.o(fingertech_flashop)
    FLEXSPI_SoftwareReset                    0x60002cbb   Thumb Code    22  fsl_flexspi.o(fingertech_flashop)
    FLEXSPI_EnableInterrupts                 0x60002cd1   Thumb Code     8  fsl_flexspi.o(fingertech_flashop)
    FLEXSPI_GetBusIdleStatus                 0x60002cd9   Thumb Code    30  fsl_flexspi.o(fingertech_flashop)
    i.BOARD_BootClockRUN                     0x60002cf8   Section        0  clock_config.o(i.BOARD_BootClockRUN)
    i.BOARD_ConfigMPU                        0x60002fc4   Section        0  board.o(i.BOARD_ConfigMPU)
    i.BOARD_InitPins                         0x60003178   Section        0  pin_mux.o(i.BOARD_InitPins)
    i.BOARD_PullCameraPowerDownPin           0x6000326c   Section        0  fingertech_camera.o(i.BOARD_PullCameraPowerDownPin)
    i.CLOCK_ControlGate                      0x60003290   Section        0  fsl_dmamux.o(i.CLOCK_ControlGate)
    CLOCK_ControlGate                        0x60003291   Thumb Code    60  fsl_dmamux.o(i.CLOCK_ControlGate)
    i.CLOCK_ControlGate                      0x600032fc   Section        0  fsl_edma.o(i.CLOCK_ControlGate)
    CLOCK_ControlGate                        0x600032fd   Thumb Code    60  fsl_edma.o(i.CLOCK_ControlGate)
    i.CLOCK_ControlGate                      0x60003368   Section        0  fsl_lpspi.o(i.CLOCK_ControlGate)
    CLOCK_ControlGate                        0x60003369   Thumb Code    60  fsl_lpspi.o(i.CLOCK_ControlGate)
    i.CLOCK_ControlGate                      0x600033d4   Section        0  fsl_lpi2c.o(i.CLOCK_ControlGate)
    CLOCK_ControlGate                        0x600033d5   Thumb Code    60  fsl_lpi2c.o(i.CLOCK_ControlGate)
    i.CLOCK_ControlGate                      0x60003440   Section        0  fsl_csi.o(i.CLOCK_ControlGate)
    CLOCK_ControlGate                        0x60003441   Thumb Code    60  fsl_csi.o(i.CLOCK_ControlGate)
    i.CLOCK_EnableClock                      0x600034ac   Section        0  pin_mux.o(i.CLOCK_EnableClock)
    CLOCK_EnableClock                        0x600034ad   Thumb Code    68  pin_mux.o(i.CLOCK_EnableClock)
    i.CLOCK_EnableClock                      0x60003520   Section        0  fingertech_camera.o(i.CLOCK_EnableClock)
    CLOCK_EnableClock                        0x60003521   Thumb Code    68  fingertech_camera.o(i.CLOCK_EnableClock)
    i.CLOCK_EnableClock                      0x60003578   Section        0  fingertech_i2c_api.o(i.CLOCK_EnableClock)
    CLOCK_EnableClock                        0x60003579   Thumb Code    68  fingertech_i2c_api.o(i.CLOCK_EnableClock)
    i.CLOCK_EnableClock                      0x600035d0   Section        0  fsl_lpspi.o(i.CLOCK_EnableClock)
    CLOCK_EnableClock                        0x600035d1   Thumb Code    14  fsl_lpspi.o(i.CLOCK_EnableClock)
    i.CLOCK_EnableClock                      0x600035de   Section        0  fsl_lpi2c.o(i.CLOCK_EnableClock)
    CLOCK_EnableClock                        0x600035df   Thumb Code    14  fsl_lpi2c.o(i.CLOCK_EnableClock)
    i.CLOCK_EnableClock                      0x600035ec   Section        0  fsl_gpio.o(i.CLOCK_EnableClock)
    CLOCK_EnableClock                        0x600035ed   Thumb Code    68  fsl_gpio.o(i.CLOCK_EnableClock)
    i.CLOCK_EnableClock                      0x60003660   Section        0  fsl_flexspi.o(i.CLOCK_EnableClock)
    CLOCK_EnableClock                        0x60003661   Thumb Code    68  fsl_flexspi.o(i.CLOCK_EnableClock)
    i.CLOCK_GetFreq                          0x600036d4   Section        0  fsl_clock.o(i.CLOCK_GetFreq)
    i.CLOCK_GetOscFreq                       0x60003848   Section        0  fsl_clock.o(i.CLOCK_GetOscFreq)
    CLOCK_GetOscFreq                         0x60003849   Thumb Code    20  fsl_clock.o(i.CLOCK_GetOscFreq)
    i.CLOCK_GetPeriphClkFreq                 0x60003868   Section        0  fsl_clock.o(i.CLOCK_GetPeriphClkFreq)
    CLOCK_GetPeriphClkFreq                   0x60003869   Thumb Code   186  fsl_clock.o(i.CLOCK_GetPeriphClkFreq)
    i.CLOCK_GetPllFreq                       0x60003930   Section        0  fsl_clock.o(i.CLOCK_GetPllFreq)
    i.CLOCK_GetSysPfdFreq                    0x60003b5c   Section        0  fsl_clock.o(i.CLOCK_GetSysPfdFreq)
    i.CLOCK_GetUsb1PfdFreq                   0x60003bc8   Section        0  fsl_clock.o(i.CLOCK_GetUsb1PfdFreq)
    i.CLOCK_InitArmPll                       0x60003c34   Section        0  fsl_clock.o(i.CLOCK_InitArmPll)
    i.CLOCK_SetDiv                           0x60003c8c   Section        0  clock_config.o(i.CLOCK_SetDiv)
    CLOCK_SetDiv                             0x60003c8d   Thumb Code   100  clock_config.o(i.CLOCK_SetDiv)
    i.CLOCK_SetDiv                           0x60003d34   Section        0  fingertech_camera.o(i.CLOCK_SetDiv)
    CLOCK_SetDiv                             0x60003d35   Thumb Code   102  fingertech_camera.o(i.CLOCK_SetDiv)
    i.CLOCK_SetDiv                           0x60003da4   Section        0  fingertech_spiconfig.o(i.CLOCK_SetDiv)
    CLOCK_SetDiv                             0x60003da5   Thumb Code   102  fingertech_spiconfig.o(i.CLOCK_SetDiv)
    i.CLOCK_SetDiv                           0x60003e14   Section        0  fingertech_i2c_api.o(i.CLOCK_SetDiv)
    CLOCK_SetDiv                             0x60003e15   Thumb Code   102  fingertech_i2c_api.o(i.CLOCK_SetDiv)
    i.CLOCK_SetMux                           0x60003e84   Section        0  clock_config.o(i.CLOCK_SetMux)
    CLOCK_SetMux                             0x60003e85   Thumb Code   100  clock_config.o(i.CLOCK_SetMux)
    i.CLOCK_SetMux                           0x60003f2c   Section        0  fingertech_camera.o(i.CLOCK_SetMux)
    CLOCK_SetMux                             0x60003f2d   Thumb Code   100  fingertech_camera.o(i.CLOCK_SetMux)
    i.CLOCK_SetMux                           0x60003fd4   Section        0  fingertech_spiconfig.o(i.CLOCK_SetMux)
    CLOCK_SetMux                             0x60003fd5   Thumb Code   100  fingertech_spiconfig.o(i.CLOCK_SetMux)
    i.CLOCK_SetMux                           0x6000407c   Section        0  fingertech_i2c_api.o(i.CLOCK_SetMux)
    CLOCK_SetMux                             0x6000407d   Thumb Code   100  fingertech_i2c_api.o(i.CLOCK_SetMux)
    i.CSI_ClearFifo                          0x60004124   Section        0  fsl_csi.o(i.CSI_ClearFifo)
    i.CSI_EnableFifoDmaRequest               0x6000415c   Section        0  fsl_csi.o(i.CSI_EnableFifoDmaRequest)
    i.CSI_EnableInterrupts                   0x60004188   Section        0  fsl_csi.o(i.CSI_EnableInterrupts)
    i.CSI_GetDefaultConfig                   0x600041a8   Section        0  fsl_csi.o(i.CSI_GetDefaultConfig)
    i.CSI_GetInstance                        0x60004204   Section        0  fsl_csi.o(i.CSI_GetInstance)
    CSI_GetInstance                          0x60004205   Thumb Code    46  fsl_csi.o(i.CSI_GetInstance)
    i.CSI_IRQHandler                         0x60004278   Section        0  fingertech_exit.o(i.CSI_IRQHandler)
    i.CSI_Init                               0x600042a8   Section        0  fsl_csi.o(i.CSI_Init)
    i.CSI_ReflashFifoDma                     0x600043d8   Section        0  fsl_csi.o(i.CSI_ReflashFifoDma)
    i.CSI_Reset                              0x60004404   Section        0  fsl_csi.o(i.CSI_Reset)
    i.CSI_SetRxBufferAddr                    0x60004458   Section        0  fsl_csi.o(i.CSI_SetRxBufferAddr)
    i.CSI_Stop                               0x60004462   Section        0  fsl_csi.o(i.CSI_Stop)
    CSI_Stop                                 0x60004463   Thumb Code    24  fsl_csi.o(i.CSI_Stop)
    i.Cdfinger_AttributeTransfer             0x6000447c   Section        0  fingertech_common.o(i.Cdfinger_AttributeTransfer)
    i.Cdfinger_ChangeExposureTime            0x600044d4   Section        0  fingertech_common.o(i.Cdfinger_ChangeExposureTime)
    i.Cdfinger_EnrollPrepareTransfer         0x60004534   Section        0  fingertech_common.o(i.Cdfinger_EnrollPrepareTransfer)
    i.Cdfinger_GetImage                      0x6000458c   Section        0  fingertech_common.o(i.Cdfinger_GetImage)
    i.Cdfinger_MoveImage                     0x60004648   Section        0  fingertech_common.o(i.Cdfinger_MoveImage)
    i.Cdfinger_RecPrepareTransfer            0x60004708   Section        0  fingertech_common.o(i.Cdfinger_RecPrepareTransfer)
    i.Cdfinger_RetryRecPrepareTransfer       0x60004768   Section        0  fingertech_common.o(i.Cdfinger_RetryRecPrepareTransfer)
    i.Cdfinger_SetCoordinates                0x600047a4   Section        0  fingertech_common.o(i.Cdfinger_SetCoordinates)
    i.ConvertRadixNumToString                0x60004854   Section        0  fsl_str.o(i.ConvertRadixNumToString)
    ConvertRadixNumToString                  0x60004855   Thumb Code   168  fsl_str.o(i.ConvertRadixNumToString)
    i.DMA0_DMA16_DriverIRQHandler            0x600048fc   Section        0  fsl_edma.o(i.DMA0_DMA16_DriverIRQHandler)
    i.DMA10_DMA26_DriverIRQHandler           0x60004934   Section        0  fsl_edma.o(i.DMA10_DMA26_DriverIRQHandler)
    i.DMA11_DMA27_DriverIRQHandler           0x6000496c   Section        0  fsl_edma.o(i.DMA11_DMA27_DriverIRQHandler)
    i.DMA12_DMA28_DriverIRQHandler           0x600049a4   Section        0  fsl_edma.o(i.DMA12_DMA28_DriverIRQHandler)
    i.DMA13_DMA29_DriverIRQHandler           0x600049dc   Section        0  fsl_edma.o(i.DMA13_DMA29_DriverIRQHandler)
    i.DMA14_DMA30_DriverIRQHandler           0x60004a14   Section        0  fsl_edma.o(i.DMA14_DMA30_DriverIRQHandler)
    i.DMA15_DMA31_DriverIRQHandler           0x60004a4c   Section        0  fsl_edma.o(i.DMA15_DMA31_DriverIRQHandler)
    i.DMA1_DMA17_DriverIRQHandler            0x60004a84   Section        0  fsl_edma.o(i.DMA1_DMA17_DriverIRQHandler)
    i.DMA2_DMA18_DriverIRQHandler            0x60004abc   Section        0  fsl_edma.o(i.DMA2_DMA18_DriverIRQHandler)
    i.DMA3_DMA19_DriverIRQHandler            0x60004af4   Section        0  fsl_edma.o(i.DMA3_DMA19_DriverIRQHandler)
    i.DMA4_DMA20_DriverIRQHandler            0x60004b2c   Section        0  fsl_edma.o(i.DMA4_DMA20_DriverIRQHandler)
    i.DMA5_DMA21_DriverIRQHandler            0x60004b64   Section        0  fsl_edma.o(i.DMA5_DMA21_DriverIRQHandler)
    i.DMA6_DMA22_DriverIRQHandler            0x60004b9c   Section        0  fsl_edma.o(i.DMA6_DMA22_DriverIRQHandler)
    i.DMA7_DMA23_DriverIRQHandler            0x60004bd4   Section        0  fsl_edma.o(i.DMA7_DMA23_DriverIRQHandler)
    i.DMA8_DMA24_DriverIRQHandler            0x60004c0c   Section        0  fsl_edma.o(i.DMA8_DMA24_DriverIRQHandler)
    i.DMA9_DMA25_DriverIRQHandler            0x60004c44   Section        0  fsl_edma.o(i.DMA9_DMA25_DriverIRQHandler)
    i.DMAMUX_EnableChannel                   0x60004c7c   Section        0  fingertech_spiconfig.o(i.DMAMUX_EnableChannel)
    DMAMUX_EnableChannel                     0x60004c7d   Thumb Code    36  fingertech_spiconfig.o(i.DMAMUX_EnableChannel)
    i.DMAMUX_GetInstance                     0x60004cec   Section        0  fsl_dmamux.o(i.DMAMUX_GetInstance)
    DMAMUX_GetInstance                       0x60004ced   Thumb Code    46  fsl_dmamux.o(i.DMAMUX_GetInstance)
    i.DMAMUX_Init                            0x60004d64   Section        0  fsl_dmamux.o(i.DMAMUX_Init)
    i.DMAMUX_SetSource                       0x60004d84   Section        0  fingertech_spiconfig.o(i.DMAMUX_SetSource)
    DMAMUX_SetSource                         0x60004d85   Thumb Code    38  fingertech_spiconfig.o(i.DMAMUX_SetSource)
    i.DMA_transfer_data                      0x60004df8   Section        0  fingertech_spiconfig.o(i.DMA_transfer_data)
    i.DbgConsole_Printf                      0x60004e28   Section        0  fsl_debug_console.o(i.DbgConsole_Printf)
    i.DbgConsole_RelocateLog                 0x60004e68   Section        0  fsl_debug_console.o(i.DbgConsole_RelocateLog)
    DbgConsole_RelocateLog                   0x60004e69   Thumb Code    62  fsl_debug_console.o(i.DbgConsole_RelocateLog)
    i.DisableGlobalIRQ                       0x60004ea6   Section        0  fsl_edma.o(i.DisableGlobalIRQ)
    DisableGlobalIRQ                         0x60004ea7   Thumb Code    12  fsl_edma.o(i.DisableGlobalIRQ)
    i.DisableGlobalIRQ                       0x60004eb2   Section        0  fingertech_flashconfig.o(i.DisableGlobalIRQ)
    DisableGlobalIRQ                         0x60004eb3   Thumb Code    12  fingertech_flashconfig.o(i.DisableGlobalIRQ)
    i.DistinguishCamera                      0x60004ec0   Section        0  fingertech_camera.o(i.DistinguishCamera)
    i.EDMA_Callback                          0x60004fb4   Section        0  fingertech_spiconfig.o(i.EDMA_Callback)
    i.EDMA_CreateHandle                      0x60005034   Section        0  fsl_edma.o(i.EDMA_CreateHandle)
    i.EDMA_EnableChannelInterrupts           0x6000513c   Section        0  fsl_edma.o(i.EDMA_EnableChannelInterrupts)
    i.EDMA_GetChannelStatusFlags             0x600051e8   Section        0  fsl_edma.o(i.EDMA_GetChannelStatusFlags)
    i.EDMA_GetDefaultConfig                  0x60005274   Section        0  fsl_edma.o(i.EDMA_GetDefaultConfig)
    i.EDMA_GetInstance                       0x600052c0   Section        0  fsl_edma.o(i.EDMA_GetInstance)
    EDMA_GetInstance                         0x600052c1   Thumb Code    46  fsl_edma.o(i.EDMA_GetInstance)
    i.EDMA_HandleIRQ                         0x60005330   Section        0  fsl_edma.o(i.EDMA_HandleIRQ)
    i.EDMA_Init                              0x60005420   Section        0  fsl_edma.o(i.EDMA_Init)
    i.EDMA_LpspiSlaveCallback                0x600054b0   Section        0  fsl_lpspi_edma.o(i.EDMA_LpspiSlaveCallback)
    EDMA_LpspiSlaveCallback                  0x600054b1   Thumb Code   246  fsl_lpspi_edma.o(i.EDMA_LpspiSlaveCallback)
    i.EDMA_ResetChannel                      0x600055f8   Section        0  fsl_edma.o(i.EDMA_ResetChannel)
    i.EDMA_SetCallback                       0x60005660   Section        0  fsl_edma.o(i.EDMA_SetCallback)
    i.EDMA_SetTransferConfig                 0x600056a8   Section        0  fsl_edma.o(i.EDMA_SetTransferConfig)
    i.EDMA_StartTransfer                     0x60005770   Section        0  fsl_edma.o(i.EDMA_StartTransfer)
    i.EDMA_TcdReset                          0x6000580c   Section        0  fsl_edma.o(i.EDMA_TcdReset)
    i.EDMA_TcdSetTransferConfig              0x60005898   Section        0  fsl_edma.o(i.EDMA_TcdSetTransferConfig)
    i.EnableGlobalIRQ                        0x600059a4   Section        0  fsl_edma.o(i.EnableGlobalIRQ)
    EnableGlobalIRQ                          0x600059a5   Thumb Code    10  fsl_edma.o(i.EnableGlobalIRQ)
    i.EnableGlobalIRQ                        0x600059ae   Section        0  fingertech_flashconfig.o(i.EnableGlobalIRQ)
    EnableGlobalIRQ                          0x600059af   Thumb Code    10  fingertech_flashconfig.o(i.EnableGlobalIRQ)
    i.FLEXSPI_ConfigureDll                   0x600059b8   Section        0  fsl_flexspi.o(i.FLEXSPI_ConfigureDll)
    FLEXSPI_ConfigureDll                     0x600059b9   Thumb Code   118  fsl_flexspi.o(i.FLEXSPI_ConfigureDll)
    i.FLEXSPI_GetInstance                    0x60005a34   Section        0  fsl_flexspi.o(i.FLEXSPI_GetInstance)
    i.FingerTech_BspInit                     0x60005ab4   Section        0  fingertech_common.o(i.FingerTech_BspInit)
    i.FingerTech_Delayms                     0x60005aec   Section        0  fingertech_common.o(i.FingerTech_Delayms)
    i.FingerTech_FlashConfig                 0x60005b14   Section        0  fingertech_flashconfig.o(i.FingerTech_FlashConfig)
    i.FingerTech_GetImg                      0x60005bc8   Section        0  fingertech_camera.o(i.FingerTech_GetImg)
    i.FingerTech_LedInit                     0x60005bf4   Section        0  fingertech_common.o(i.FingerTech_LedInit)
    i.FingerTech_NVIC_SetGrouping            0x60005c44   Section        0  fingertech_exit.o(i.FingerTech_NVIC_SetGrouping)
    i.FingerTech_change_exposureGain         0x60005c6c   Section        0  fingertech_spiconfig.o(i.FingerTech_change_exposureGain)
    i.FingerTech_change_exposureTime         0x60005c80   Section        0  fingertech_spiconfig.o(i.FingerTech_change_exposureTime)
    i.FingerTech_move_image                  0x60005cd0   Section        0  fingertech_spiconfig.o(i.FingerTech_move_image)
    i.Fingertech_CSI_Init                    0x60005d20   Section        0  fingertech_camera.o(i.Fingertech_CSI_Init)
    Fingertech_CSI_Init                      0x60005d21   Thumb Code   160  fingertech_camera.o(i.Fingertech_CSI_Init)
    i.Fingertech_SpiConfig                   0x60005dc4   Section        0  fingertech_spiconfig.o(i.Fingertech_SpiConfig)
    i.Fingertech_cameraconfig                0x60005ed4   Section        0  fingertech_camera.o(i.Fingertech_cameraconfig)
    i.Fingertech_cameragpioinit              0x60005f34   Section        0  fingertech_camera.o(i.Fingertech_cameragpioinit)
    i.Fingertech_camerainitresource          0x60006118   Section        0  fingertech_camera.o(i.Fingertech_camerainitresource)
    i.Fingertech_sp0828gpioinit              0x6000614c   Section        0  fingertech_i2c_api.o(i.Fingertech_sp0828gpioinit)
    i.Fingertech_sp0828iicconfig             0x600061c4   Section        0  fingertech_i2c_api.o(i.Fingertech_sp0828iicconfig)
    i.Fingertech_sp0828iicreaddata           0x60006210   Section        0  fingertech_i2c_api.o(i.Fingertech_sp0828iicreaddata)
    i.Fingertech_sp0828iicwritedata          0x60006244   Section        0  fingertech_i2c_api.o(i.Fingertech_sp0828iicwritedata)
    i.FusionImg                              0x60006284   Section        0  fingertech_algorithm.o(i.FusionImg)
    i.GPIO_GetInstance                       0x600062cc   Section        0  fsl_gpio.o(i.GPIO_GetInstance)
    GPIO_GetInstance                         0x600062cd   Thumb Code    48  fsl_gpio.o(i.GPIO_GetInstance)
    i.GPIO_PinInit                           0x60006340   Section        0  fsl_gpio.o(i.GPIO_PinInit)
    i.GPIO_PinSetInterruptConfig             0x600063a0   Section        0  fsl_gpio.o(i.GPIO_PinSetInterruptConfig)
    i.GPIO_PinWrite                          0x6000642c   Section        0  fsl_gpio.o(i.GPIO_PinWrite)
    i.Get_StartInstance                      0x60006488   Section        0  fsl_edma.o(i.Get_StartInstance)
    Get_StartInstance                        0x60006489   Thumb Code    18  fsl_edma.o(i.Get_StartInstance)
    i.HardFault_Handler                      0x600064a4   Section        0  fingertech_exit.o(i.HardFault_Handler)
    i.IOMUXC_SetPinConfig                    0x600064a8   Section        0  pin_mux.o(i.IOMUXC_SetPinConfig)
    IOMUXC_SetPinConfig                      0x600064a9   Thumb Code    12  pin_mux.o(i.IOMUXC_SetPinConfig)
    i.IOMUXC_SetPinConfig                    0x600064b4   Section        0  fingertech_common.o(i.IOMUXC_SetPinConfig)
    IOMUXC_SetPinConfig                      0x600064b5   Thumb Code    12  fingertech_common.o(i.IOMUXC_SetPinConfig)
    i.IOMUXC_SetPinConfig                    0x600064c0   Section        0  fingertech_i2c_api.o(i.IOMUXC_SetPinConfig)
    IOMUXC_SetPinConfig                      0x600064c1   Thumb Code    12  fingertech_i2c_api.o(i.IOMUXC_SetPinConfig)
    i.IOMUXC_SetPinMux                       0x600064cc   Section        0  pin_mux.o(i.IOMUXC_SetPinMux)
    IOMUXC_SetPinMux                         0x600064cd   Thumb Code    26  pin_mux.o(i.IOMUXC_SetPinMux)
    i.IOMUXC_SetPinMux                       0x600064e6   Section        0  fingertech_common.o(i.IOMUXC_SetPinMux)
    IOMUXC_SetPinMux                         0x600064e7   Thumb Code    26  fingertech_common.o(i.IOMUXC_SetPinMux)
    i.IOMUXC_SetPinMux                       0x60006500   Section        0  fingertech_camera.o(i.IOMUXC_SetPinMux)
    IOMUXC_SetPinMux                         0x60006501   Thumb Code    26  fingertech_camera.o(i.IOMUXC_SetPinMux)
    i.IOMUXC_SetPinMux                       0x6000651a   Section        0  fingertech_i2c_api.o(i.IOMUXC_SetPinMux)
    IOMUXC_SetPinMux                         0x6000651b   Thumb Code    26  fingertech_i2c_api.o(i.IOMUXC_SetPinMux)
    i.IO_Transfer                            0x60006534   Section        0  fsl_io.o(i.IO_Transfer)
    i.L1CACHE_CleanDCacheByRange             0x60006578   Section        0  fingertech_common.o(i.L1CACHE_CleanDCacheByRange)
    L1CACHE_CleanDCacheByRange               0x60006579   Thumb Code    28  fingertech_common.o(i.L1CACHE_CleanDCacheByRange)
    i.LOG_Pop                                0x60006594   Section        0  fsl_log.o(i.LOG_Pop)
    i.LOG_Push                               0x600065b8   Section        0  fsl_log.o(i.LOG_Push)
    i.LPI2C1_DriverIRQHandler                0x60006608   Section        0  fsl_lpi2c.o(i.LPI2C1_DriverIRQHandler)
    i.LPI2C2_DriverIRQHandler                0x60006618   Section        0  fsl_lpi2c.o(i.LPI2C2_DriverIRQHandler)
    i.LPI2C3_DriverIRQHandler                0x60006628   Section        0  fsl_lpi2c.o(i.LPI2C3_DriverIRQHandler)
    i.LPI2C4_DriverIRQHandler                0x60006638   Section        0  fsl_lpi2c.o(i.LPI2C4_DriverIRQHandler)
    i.LPI2C_CheckForBusyBus                  0x60006648   Section        0  fsl_lpi2c.o(i.LPI2C_CheckForBusyBus)
    i.LPI2C_CommonIRQHandler                 0x6000666c   Section        0  fsl_lpi2c.o(i.LPI2C_CommonIRQHandler)
    LPI2C_CommonIRQHandler                   0x6000666d   Thumb Code    66  fsl_lpi2c.o(i.LPI2C_CommonIRQHandler)
    i.LPI2C_GetCyclesForWidth                0x600066c0   Section        0  fsl_lpi2c.o(i.LPI2C_GetCyclesForWidth)
    LPI2C_GetCyclesForWidth                  0x600066c1   Thumb Code   100  fsl_lpi2c.o(i.LPI2C_GetCyclesForWidth)
    i.LPI2C_GetInstance                      0x6000676c   Section        0  fsl_lpi2c.o(i.LPI2C_GetInstance)
    i.LPI2C_MasterCheckAndClearError         0x600067c0   Section        0  fsl_lpi2c.o(i.LPI2C_MasterCheckAndClearError)
    i.LPI2C_MasterClearStatusFlags           0x6000684c   Section        0  fsl_lpi2c.o(i.LPI2C_MasterClearStatusFlags)
    LPI2C_MasterClearStatusFlags             0x6000684d   Thumb Code     4  fsl_lpi2c.o(i.LPI2C_MasterClearStatusFlags)
    i.LPI2C_MasterEnable                     0x60006850   Section        0  fsl_lpi2c.o(i.LPI2C_MasterEnable)
    LPI2C_MasterEnable                       0x60006851   Thumb Code    10  fsl_lpi2c.o(i.LPI2C_MasterEnable)
    i.LPI2C_MasterGetDefaultConfig           0x6000685c   Section        0  fsl_lpi2c.o(i.LPI2C_MasterGetDefaultConfig)
    i.LPI2C_MasterGetFifoCounts              0x6000688c   Section        0  fsl_lpi2c.o(i.LPI2C_MasterGetFifoCounts)
    LPI2C_MasterGetFifoCounts                0x6000688d   Thumb Code    22  fsl_lpi2c.o(i.LPI2C_MasterGetFifoCounts)
    i.LPI2C_MasterGetStatusFlags             0x600068a2   Section        0  fsl_lpi2c.o(i.LPI2C_MasterGetStatusFlags)
    LPI2C_MasterGetStatusFlags               0x600068a3   Thumb Code     6  fsl_lpi2c.o(i.LPI2C_MasterGetStatusFlags)
    i.LPI2C_MasterInit                       0x600068a8   Section        0  fsl_lpi2c.o(i.LPI2C_MasterInit)
    i.LPI2C_MasterReceive                    0x600069e0   Section        0  fsl_lpi2c.o(i.LPI2C_MasterReceive)
    i.LPI2C_MasterReset                      0x60006a80   Section        0  fsl_lpi2c.o(i.LPI2C_MasterReset)
    LPI2C_MasterReset                        0x60006a81   Thumb Code    10  fsl_lpi2c.o(i.LPI2C_MasterReset)
    i.LPI2C_MasterSend                       0x60006a8c   Section        0  fsl_lpi2c.o(i.LPI2C_MasterSend)
    i.LPI2C_MasterSetBaudRate                0x60006afc   Section        0  fsl_lpi2c.o(i.LPI2C_MasterSetBaudRate)
    i.LPI2C_MasterStop                       0x60006c20   Section        0  fsl_lpi2c.o(i.LPI2C_MasterStop)
    i.LPI2C_MasterTransferBlocking           0x60006c6c   Section        0  fsl_lpi2c.o(i.LPI2C_MasterTransferBlocking)
    i.LPI2C_MasterWaitForTxReady             0x60006e0c   Section        0  fsl_lpi2c.o(i.LPI2C_MasterWaitForTxReady)
    LPI2C_MasterWaitForTxReady               0x60006e0d   Thumb Code    58  fsl_lpi2c.o(i.LPI2C_MasterWaitForTxReady)
    i.LPSPI1_DriverIRQHandler                0x60006e48   Section        0  fsl_lpspi.o(i.LPSPI1_DriverIRQHandler)
    i.LPSPI2_DriverIRQHandler                0x60006ea8   Section        0  fsl_lpspi.o(i.LPSPI2_DriverIRQHandler)
    i.LPSPI3_DriverIRQHandler                0x60006f08   Section        0  fsl_lpspi.o(i.LPSPI3_DriverIRQHandler)
    i.LPSPI4_DriverIRQHandler                0x60006f68   Section        0  fsl_lpspi.o(i.LPSPI4_DriverIRQHandler)
    i.LPSPI_CheckTransferArgument            0x60006fc8   Section        0  fsl_lpspi.o(i.LPSPI_CheckTransferArgument)
    i.LPSPI_ClearStatusFlags                 0x60007058   Section        0  fsl_lpspi_edma.o(i.LPSPI_ClearStatusFlags)
    LPSPI_ClearStatusFlags                   0x60007059   Thumb Code     4  fsl_lpspi_edma.o(i.LPSPI_ClearStatusFlags)
    i.LPSPI_CommonIRQHandler                 0x6000705c   Section        0  fsl_lpspi.o(i.LPSPI_CommonIRQHandler)
    LPSPI_CommonIRQHandler                   0x6000705d   Thumb Code    40  fsl_lpspi.o(i.LPSPI_CommonIRQHandler)
    i.LPSPI_DisableDMA                       0x6000708c   Section        0  fsl_lpspi_edma.o(i.LPSPI_DisableDMA)
    LPSPI_DisableDMA                         0x6000708d   Thumb Code     8  fsl_lpspi_edma.o(i.LPSPI_DisableDMA)
    i.LPSPI_DisableInterrupts                0x60007094   Section        0  fsl_lpspi_edma.o(i.LPSPI_DisableInterrupts)
    LPSPI_DisableInterrupts                  0x60007095   Thumb Code     8  fsl_lpspi_edma.o(i.LPSPI_DisableInterrupts)
    i.LPSPI_Enable                           0x6000709c   Section        0  fingertech_common.o(i.LPSPI_Enable)
    LPSPI_Enable                             0x6000709d   Thumb Code    22  fingertech_common.o(i.LPSPI_Enable)
    i.LPSPI_Enable                           0x600070b2   Section        0  fsl_lpspi_edma.o(i.LPSPI_Enable)
    LPSPI_Enable                             0x600070b3   Thumb Code    22  fsl_lpspi_edma.o(i.LPSPI_Enable)
    i.LPSPI_Enable                           0x600070c8   Section        0  fingertech_spiconfig.o(i.LPSPI_Enable)
    LPSPI_Enable                             0x600070c9   Thumb Code    22  fingertech_spiconfig.o(i.LPSPI_Enable)
    i.LPSPI_Enable                           0x600070de   Section        0  fsl_lpspi.o(i.LPSPI_Enable)
    LPSPI_Enable                             0x600070df   Thumb Code    22  fsl_lpspi.o(i.LPSPI_Enable)
    i.LPSPI_EnableDMA                        0x600070f4   Section        0  fingertech_common.o(i.LPSPI_EnableDMA)
    LPSPI_EnableDMA                          0x600070f5   Thumb Code     8  fingertech_common.o(i.LPSPI_EnableDMA)
    i.LPSPI_EnableDMA                        0x600070fc   Section        0  fingertech_spiconfig.o(i.LPSPI_EnableDMA)
    LPSPI_EnableDMA                          0x600070fd   Thumb Code     8  fingertech_spiconfig.o(i.LPSPI_EnableDMA)
    i.LPSPI_FlushFifo                        0x60007104   Section        0  fsl_lpspi_edma.o(i.LPSPI_FlushFifo)
    LPSPI_FlushFifo                          0x60007105   Thumb Code    16  fsl_lpspi_edma.o(i.LPSPI_FlushFifo)
    i.LPSPI_GetInstance                      0x60007114   Section        0  fsl_lpspi.o(i.LPSPI_GetInstance)
    i.LPSPI_GetRxFifoCount                   0x60007190   Section        0  fsl_lpspi_edma.o(i.LPSPI_GetRxFifoCount)
    LPSPI_GetRxFifoCount                     0x60007191   Thumb Code    10  fsl_lpspi_edma.o(i.LPSPI_GetRxFifoCount)
    i.LPSPI_GetRxFifoSize                    0x6000719a   Section        0  fsl_lpspi_edma.o(i.LPSPI_GetRxFifoSize)
    LPSPI_GetRxFifoSize                      0x6000719b   Thumb Code    12  fsl_lpspi_edma.o(i.LPSPI_GetRxFifoSize)
    i.LPSPI_Reset                            0x600071a6   Section        0  fsl_lpspi.o(i.LPSPI_Reset)
    i.LPSPI_SeparateEdmaReadData             0x600071bc   Section        0  fsl_lpspi_edma.o(i.LPSPI_SeparateEdmaReadData)
    LPSPI_SeparateEdmaReadData               0x600071bd   Thumb Code   124  fsl_lpspi_edma.o(i.LPSPI_SeparateEdmaReadData)
    i.LPSPI_SetDummyData                     0x60007268   Section        0  fsl_lpspi.o(i.LPSPI_SetDummyData)
    i.LPSPI_SetFifoWatermarks                0x60007280   Section        0  fsl_lpspi_edma.o(i.LPSPI_SetFifoWatermarks)
    LPSPI_SetFifoWatermarks                  0x60007281   Thumb Code    20  fsl_lpspi_edma.o(i.LPSPI_SetFifoWatermarks)
    i.LPSPI_SetFifoWatermarks                0x60007294   Section        0  fsl_lpspi.o(i.LPSPI_SetFifoWatermarks)
    LPSPI_SetFifoWatermarks                  0x60007295   Thumb Code    20  fsl_lpspi.o(i.LPSPI_SetFifoWatermarks)
    i.LPSPI_SetMasterSlaveMode               0x600072a8   Section        0  fsl_lpspi.o(i.LPSPI_SetMasterSlaveMode)
    LPSPI_SetMasterSlaveMode                 0x600072a9   Thumb Code    10  fsl_lpspi.o(i.LPSPI_SetMasterSlaveMode)
    i.LPSPI_SetOnePcsPolarity                0x600072b2   Section        0  fsl_lpspi.o(i.LPSPI_SetOnePcsPolarity)
    LPSPI_SetOnePcsPolarity                  0x600072b3   Thumb Code    30  fsl_lpspi.o(i.LPSPI_SetOnePcsPolarity)
    i.LPSPI_SlaveInit                        0x600072d0   Section        0  fsl_lpspi.o(i.LPSPI_SlaveInit)
    i.LPSPI_SlaveTransferCreateHandleEDMA    0x600073a8   Section        0  fsl_lpspi_edma.o(i.LPSPI_SlaveTransferCreateHandleEDMA)
    i.LPSPI_SlaveTransferEDMA                0x6000747c   Section        0  fsl_lpspi_edma.o(i.LPSPI_SlaveTransferEDMA)
    i.LPUART1_DriverIRQHandler               0x600078f4   Section        0  fsl_lpuart.o(i.LPUART1_DriverIRQHandler)
    i.LPUART2_DriverIRQHandler               0x60007910   Section        0  fsl_lpuart.o(i.LPUART2_DriverIRQHandler)
    i.LPUART3_DriverIRQHandler               0x6000792c   Section        0  fsl_lpuart.o(i.LPUART3_DriverIRQHandler)
    i.LPUART4_DriverIRQHandler               0x60007948   Section        0  fsl_lpuart.o(i.LPUART4_DriverIRQHandler)
    i.LPUART5_DriverIRQHandler               0x60007964   Section        0  fsl_lpuart.o(i.LPUART5_DriverIRQHandler)
    i.LPUART6_DriverIRQHandler               0x60007980   Section        0  fsl_lpuart.o(i.LPUART6_DriverIRQHandler)
    i.LPUART7_DriverIRQHandler               0x6000799c   Section        0  fsl_lpuart.o(i.LPUART7_DriverIRQHandler)
    i.LPUART8_DriverIRQHandler               0x600079b8   Section        0  fsl_lpuart.o(i.LPUART8_DriverIRQHandler)
    i.LPUART_ClearStatusFlags                0x600079d4   Section        0  fsl_lpuart.o(i.LPUART_ClearStatusFlags)
    i.LPUART_GetStatusFlags                  0x60007a2c   Section        0  fsl_lpuart.o(i.LPUART_GetStatusFlags)
    i.LPUART_ReadBlocking                    0x60007a3c   Section        0  fsl_lpuart.o(i.LPUART_ReadBlocking)
    i.LPUART_WriteBlocking                   0x60007b30   Section        0  fsl_lpuart.o(i.LPUART_WriteBlocking)
    i.M1_V1_DelayMs                          0x60007b90   Section        0  fingertech_camera.o(i.M1_V1_DelayMs)
    i.M1_V1_Init                             0x60007bbc   Section        0  fingertech_camera.o(i.M1_V1_Init)
    i.M1_V1_Start                            0x60007cb0   Section        0  fingertech_camera.o(i.M1_V1_Start)
    i.M1_V1_Stop                             0x60007ce0   Section        0  fingertech_camera.o(i.M1_V1_Stop)
    i.M1_V1__full_frame_size                 0x60007ce2   Section        0  fingertech_camera.o(i.M1_V1__full_frame_size)
    i.M1_V1__out_frame_size                  0x60007d1e   Section        0  fingertech_camera.o(i.M1_V1__out_frame_size)
    i.M1_V1_config_mclk_pclk                 0x60007d9e   Section        0  fingertech_camera.o(i.M1_V1_config_mclk_pclk)
    i.M1_V1_dvp_init                         0x60007dcc   Section        0  fingertech_camera.o(i.M1_V1_dvp_init)
    i.M1_V1_readid                           0x60007df4   Section        0  fingertech_camera.o(i.M1_V1_readid)
    i.M1_V1_reset                            0x60007e54   Section        0  fingertech_camera.o(i.M1_V1_reset)
    i.PIS1701_Init                           0x60007e70   Section        0  pis1701.o(i.PIS1701_Init)
    i.PIS1701_Start                          0x60007f9c   Section        0  pis1701.o(i.PIS1701_Start)
    i.PIS1701_Stop                           0x60007fc8   Section        0  pis1701.o(i.PIS1701_Stop)
    i.PIS1701__full_frame_size               0x60007fd2   Section        0  pis1701.o(i.PIS1701__full_frame_size)
    PIS1701__full_frame_size                 0x60007fd3   Thumb Code    48  pis1701.o(i.PIS1701__full_frame_size)
    i.PIS1701_change_exposureTime            0x60008004   Section        0  pis1701.o(i.PIS1701_change_exposureTime)
    PIS1701_change_exposureTime              0x60008005   Thumb Code    96  pis1701.o(i.PIS1701_change_exposureTime)
    i.PIS1701_out_frame_size                 0x60008088   Section        0  pis1701.o(i.PIS1701_out_frame_size)
    PIS1701_out_frame_size                   0x60008089   Thumb Code   108  pis1701.o(i.PIS1701_out_frame_size)
    i.SCB_CleanDCache_by_Addr                0x600080f4   Section        0  fingertech_common.o(i.SCB_CleanDCache_by_Addr)
    SCB_CleanDCache_by_Addr                  0x600080f5   Thumb Code    72  fingertech_common.o(i.SCB_CleanDCache_by_Addr)
    i.SCB_DisableDCache                      0x60008140   Section        0  board.o(i.SCB_DisableDCache)
    SCB_DisableDCache                        0x60008141   Thumb Code   150  board.o(i.SCB_DisableDCache)
    i.SCB_EnableDCache                       0x600081e0   Section        0  board.o(i.SCB_EnableDCache)
    SCB_EnableDCache                         0x600081e1   Thumb Code   148  board.o(i.SCB_EnableDCache)
    i.SCB_EnableDCache                       0x6000827c   Section        0  system_mimxrt1052.o(i.SCB_EnableDCache)
    SCB_EnableDCache                         0x6000827d   Thumb Code   148  system_mimxrt1052.o(i.SCB_EnableDCache)
    i.SCB_EnableICache                       0x60008318   Section        0  board.o(i.SCB_EnableICache)
    SCB_EnableICache                         0x60008319   Thumb Code   116  board.o(i.SCB_EnableICache)
    i.SCB_EnableICache                       0x60008394   Section        0  system_mimxrt1052.o(i.SCB_EnableICache)
    SCB_EnableICache                         0x60008395   Thumb Code   116  system_mimxrt1052.o(i.SCB_EnableICache)
    i.SCB_InvalidateDCache_by_Addr           0x60008410   Section        0  fingertech_common.o(i.SCB_InvalidateDCache_by_Addr)
    SCB_InvalidateDCache_by_Addr             0x60008411   Thumb Code    72  fingertech_common.o(i.SCB_InvalidateDCache_by_Addr)
    i.StrFormatPrintf                        0x6000845c   Section        0  fsl_str.o(i.StrFormatPrintf)
    i.SystemInit                             0x6000868c   Section        0  system_mimxrt1052.o(i.SystemInit)
    i.SystemInitHook                         0x60008758   Section        0  system_mimxrt1052.o(i.SystemInitHook)
    i.__0printf$8                            0x6000875c   Section        0  printf8.o(i.__0printf$8)
    i.__aeabi_assert                         0x6000877c   Section        0  fsl_assert.o(i.__aeabi_assert)
    i.__scatterload_copy                     0x600087c0   Section       14  handlers.o(i.__scatterload_copy)
    i.__scatterload_null                     0x600087ce   Section        2  handlers.o(i.__scatterload_null)
    i.__scatterload_zeroinit                 0x600087d0   Section       14  handlers.o(i.__scatterload_zeroinit)
    i._printf_core                           0x600087e0   Section        0  printf8.o(i._printf_core)
    _printf_core                             0x600087e1   Thumb Code   996  printf8.o(i._printf_core)
    i._printf_post_padding                   0x60008bf0   Section        0  printf8.o(i._printf_post_padding)
    _printf_post_padding                     0x60008bf1   Thumb Code    36  printf8.o(i._printf_post_padding)
    i._printf_pre_padding                    0x60008c14   Section        0  printf8.o(i._printf_pre_padding)
    _printf_pre_padding                      0x60008c15   Thumb Code    46  printf8.o(i._printf_pre_padding)
    i.coordinate                             0x60008c44   Section        0  fingertech_algorithm.o(i.coordinate)
    i.fputc                                  0x60008da4   Section        0  fsl_debug_console.o(i.fputc)
    i.im_mean                                0x60008db4   Section        0  fingertech_algorithm.o(i.im_mean)
    i.main                                   0x60008dfc   Section        0  main.o(i.main)
    i.one_Extrect_three                      0x60008e68   Section        0  fingertech_algorithm.o(i.one_Extrect_three)
    i.update_camera_cfg                      0x60008fec   Section        0  fingertech_flashconfig.o(i.update_camera_cfg)
    .constdata                               0x60009030   Section       26  clock_config.o(.constdata)
    .constdata                               0x6000904c   Section        3  fingertech_common.o(.constdata)
    .constdata                               0x60009050   Section       28  fingertech_camera.o(.constdata)
    .constdata                               0x6000906c   Section        6  fsl_dmamux.o(.constdata)
    s_dmamuxBases                            0x6000906c   Data           4  fsl_dmamux.o(.constdata)
    s_dmamuxClockName                        0x60009070   Data           2  fsl_dmamux.o(.constdata)
    .constdata                               0x60009074   Section       70  fsl_edma.o(.constdata)
    s_edmaBases                              0x60009074   Data           4  fsl_edma.o(.constdata)
    s_edmaClockName                          0x60009078   Data           2  fsl_edma.o(.constdata)
    s_edmaIRQNumber                          0x6000907a   Data          64  fsl_edma.o(.constdata)
    .constdata                               0x600090bc   Section        3  fingertech_spiconfig.o(.constdata)
    .constdata                               0x600090c0   Section      256  fingertech_flashconfig.o(.constdata)
    .constdata                               0x600091c0   Section       16  fsl_clock.o(.constdata)
    .constdata                               0x600091d0   Section       48  fsl_lpspi.o(.constdata)
    s_baudratePrescaler                      0x600091d0   Data           8  fsl_lpspi.o(.constdata)
    s_lpspiBases                             0x600091d8   Data          20  fsl_lpspi.o(.constdata)
    s_lpspiIRQ                               0x600091ec   Data          10  fsl_lpspi.o(.constdata)
    s_lpspiClocks                            0x600091f6   Data          10  fsl_lpspi.o(.constdata)
    .constdata                               0x60009200   Section       40  fsl_lpi2c.o(.constdata)
    kLpi2cBases                              0x60009200   Data          20  fsl_lpi2c.o(.constdata)
    kLpi2cIrqs                               0x60009214   Data          10  fsl_lpi2c.o(.constdata)
    kLpi2cClocks                             0x6000921e   Data          10  fsl_lpi2c.o(.constdata)
    .constdata                               0x60009228   Section       36  fsl_gpio.o(.constdata)
    s_gpioBases                              0x60009228   Data          24  fsl_gpio.o(.constdata)
    s_gpioClock                              0x60009240   Data          12  fsl_gpio.o(.constdata)
    .constdata                               0x6000924c   Section        8  fsl_csi.o(.constdata)
    s_csiBases                               0x6000924c   Data           4  fsl_csi.o(.constdata)
    s_csiClocks                              0x60009250   Data           2  fsl_csi.o(.constdata)
    s_csiIRQ                                 0x60009252   Data           2  fsl_csi.o(.constdata)
    .constdata                               0x60009254   Section        8  fsl_flexspi.o(.constdata)
    s_flexspiBases                           0x60009254   Data           4  fsl_flexspi.o(.constdata)
    s_flexspiIrqs                            0x60009258   Data           2  fsl_flexspi.o(.constdata)
    s_flexspiClock                           0x6000925a   Data           2  fsl_flexspi.o(.constdata)
    .data                                    0x80000000   Section        1  fingertech_common.o(.data)
    .data                                    0x80000001   Section        2  fingertech_exit.o(.data)
    .data                                    0x80000004   Section      432  fingertech_camera.o(.data)
    M1_DVP_INIT_Conf                         0x8000000c   Data         424  fingertech_camera.o(.data)
    .data                                    0x800001b4   Section        1  fsl_edma.o(.data)
    StartInstanceNum                         0x800001b4   Data           1  fsl_edma.o(.data)
    .data                                    0x800001b5   Section        3  fingertech_spiconfig.o(.data)
    .data                                    0x800001b8   Section        1  fingertech_algorithm.o(.data)
    count                                    0x800001b8   Data           1  fingertech_algorithm.o(.data)
    .data                                    0x800001bc   Section        8  fsl_clock.o(.data)
    .data                                    0x800001c4   Section       13  fsl_lpspi.o(.data)
    s_lpspiMasterIsr                         0x800001c4   Data           4  fsl_lpspi.o(.data)
    s_lpspiSlaveIsr                          0x800001c8   Data           4  fsl_lpspi.o(.data)
    .data                                    0x800001d4   Section        4  fsl_lpuart.o(.data)
    s_lpuartIsr                              0x800001d4   Data           4  fsl_lpuart.o(.data)
    .data                                    0x800001d8   Section        8  fsl_lpi2c.o(.data)
    s_lpi2cMasterIsr                         0x800001d8   Data           4  fsl_lpi2c.o(.data)
    s_lpi2cSlaveIsr                          0x800001dc   Data           4  fsl_lpi2c.o(.data)
    .data                                    0x800001e0   Section        4  fsl_flexspi.o(.data)
    s_flexspiHandle                          0x800001e0   Data           4  fsl_flexspi.o(.data)
    .data                                    0x800001e4   Section        4  system_mimxrt1052.o(.data)
    .data                                    0x800001e8   Section        8  fsl_io.o(.data)
    s_debugConsoleIO                         0x800001e8   Data           8  fsl_io.o(.data)
    .data                                    0x800001f0   Section        8  fsl_debug_console.o(.data)
    .bss                                     0x800001f8   Section       88  fingertech_camera.o(.bss)
    csiPrivateData                           0x800001f8   Data          44  fingertech_camera.o(.bss)
    .bss                                     0x80000250   Section      128  fsl_edma.o(.bss)
    s_EDMAHandle                             0x80000250   Data         128  fsl_edma.o(.bss)
    .bss                                     0x800002d0   Section       64  fsl_lpspi_edma.o(.bss)
    s_lpspiMasterEdmaPrivateHandle           0x800002d0   Data          32  fsl_lpspi_edma.o(.bss)
    s_lpspiSlaveEdmaPrivateHandle            0x800002f0   Data          32  fsl_lpspi_edma.o(.bss)
    .bss                                     0x80000310   Section      196  fingertech_spiconfig.o(.bss)
    .bss                                     0x800003d4   Section       20  fsl_lpspi.o(.bss)
    s_lpspiHandle                            0x800003d4   Data          20  fsl_lpspi.o(.bss)
    .bss                                     0x800003e8   Section       36  fsl_lpuart.o(.bss)
    s_lpuartHandle                           0x800003e8   Data          36  fsl_lpuart.o(.bss)
    .bss                                     0x8000040c   Section       40  fsl_lpi2c.o(.bss)
    s_lpi2cMasterHandle                      0x8000040c   Data          20  fsl_lpi2c.o(.bss)
    s_lpi2cSlaveHandle                       0x80000420   Data          20  fsl_lpi2c.o(.bss)
    NonCacheable                             0x81e00000   Section        0  fingertech_flashconfig.o(NonCacheable)
    NonCacheable                             0x81e001b8   Section        0  fsl_flexspi.o(NonCacheable)
    Long Thumb to Thumb Veneer to FLEXSPI_GetBusIdleStatus 0x81e0067f   Thumb Code    10  anon$$obj.o(Veneer$$Code)
    NonCacheable.init                        0x81e00694   Section    200768  fingertech_common.o(NonCacheable.init)

    Global Symbols

    Symbol Name                              Value     Ov Type        Size  Object(Section)

    BuildAttributes$$THM_ISAv4$E$P$D$K$B$S$7EM$VFPv5_D16$PE$PLD8$A:L22UL41UL21$X:L11$S22US41US21$IEEE1$IW$USESV6$~STKCKD$USESV7$~SHL$OSPACE$ROPI$EBA8$MICROLIB$REQ8$PRES8$EABIv2 0x00000000   Number         0  anon$$obj.o ABSOLUTE
    __ARM_use_no_argv                        0x00000000   Number         0  main.o ABSOLUTE
    _printf_a                                0x00000000   Number         0  stubs.o ABSOLUTE
    _printf_c                                0x00000000   Number         0  stubs.o ABSOLUTE
    _printf_charcount                        0x00000000   Number         0  stubs.o ABSOLUTE
    _printf_d                                0x00000000   Number         0  stubs.o ABSOLUTE
    _printf_e                                0x00000000   Number         0  stubs.o ABSOLUTE
    _printf_f                                0x00000000   Number         0  stubs.o ABSOLUTE
    _printf_flags                            0x00000000   Number         0  stubs.o ABSOLUTE
    _printf_fp_dec                           0x00000000   Number         0  stubs.o ABSOLUTE
    _printf_fp_hex                           0x00000000   Number         0  stubs.o ABSOLUTE
    _printf_g                                0x00000000   Number         0  stubs.o ABSOLUTE
    _printf_i                                0x00000000   Number         0  stubs.o ABSOLUTE
    _printf_int_dec                          0x00000000   Number         0  stubs.o ABSOLUTE
    _printf_l                                0x00000000   Number         0  stubs.o ABSOLUTE
    _printf_lc                               0x00000000   Number         0  stubs.o ABSOLUTE
    _printf_ll                               0x00000000   Number         0  stubs.o ABSOLUTE
    _printf_lld                              0x00000000   Number         0  stubs.o ABSOLUTE
    _printf_lli                              0x00000000   Number         0  stubs.o ABSOLUTE
    _printf_llo                              0x00000000   Number         0  stubs.o ABSOLUTE
    _printf_llu                              0x00000000   Number         0  stubs.o ABSOLUTE
    _printf_llx                              0x00000000   Number         0  stubs.o ABSOLUTE
    _printf_longlong_dec                     0x00000000   Number         0  stubs.o ABSOLUTE
    _printf_longlong_hex                     0x00000000   Number         0  stubs.o ABSOLUTE
    _printf_longlong_oct                     0x00000000   Number         0  stubs.o ABSOLUTE
    _printf_ls                               0x00000000   Number         0  stubs.o ABSOLUTE
    _printf_mbtowc                           0x00000000   Number         0  stubs.o ABSOLUTE
    _printf_n                                0x00000000   Number         0  stubs.o ABSOLUTE
    _printf_o                                0x00000000   Number         0  stubs.o ABSOLUTE
    _printf_p                                0x00000000   Number         0  stubs.o ABSOLUTE
    _printf_percent                          0x00000000   Number         0  stubs.o ABSOLUTE
    _printf_pre_padding                      0x00000000   Number         0  stubs.o ABSOLUTE
    _printf_return_value                     0x00000000   Number         0  stubs.o ABSOLUTE
    _printf_s                                0x00000000   Number         0  stubs.o ABSOLUTE
    _printf_sizespec                         0x00000000   Number         0  stubs.o ABSOLUTE
    _printf_str                              0x00000000   Number         0  stubs.o ABSOLUTE
    _printf_truncate_signed                  0x00000000   Number         0  stubs.o ABSOLUTE
    _printf_truncate_unsigned                0x00000000   Number         0  stubs.o ABSOLUTE
    _printf_u                                0x00000000   Number         0  stubs.o ABSOLUTE
    _printf_wc                               0x00000000   Number         0  stubs.o ABSOLUTE
    _printf_wctomb                           0x00000000   Number         0  stubs.o ABSOLUTE
    _printf_widthprec                        0x00000000   Number         0  stubs.o ABSOLUTE
    _printf_x                                0x00000000   Number         0  stubs.o ABSOLUTE
    __cpp_initialize__aeabi_                  - Undefined Weak Reference
    __cxa_finalize                            - Undefined Weak Reference
    _clock_init                               - Undefined Weak Reference
    _microlib_exit                            - Undefined Weak Reference
    __Vectors_Size                           0x00000400   Number         0  startup_mimxrt1052.o ABSOLUTE
    s_frameBuffer                            0x20200000   Data       100352  fingertech_common.o(Cacheable)
    Image$$RW_m_config_text$$Base            0x60000000   Number         0  anon$$obj.o ABSOLUTE
    finggertechflash_config                  0x60000000   Data         512  evkbimxrt1050_flexspi_nor_config.o(.boot_hdr.conf)
    image_vector_table                       0x60001000   Data          32  fsl_flexspi_nor_boot.o(.boot_hdr.ivt)
    boot_data                                0x60001020   Data          16  fsl_flexspi_nor_boot.o(.boot_hdr.boot_data)
    dcd_data                                 0x60001030   Data        1072  evkbimxrt1050_sdram_ini_dcd.o(.boot_hdr.dcd_data)
    __Vectors                                0x60002000   Data           4  startup_mimxrt1052.o(RESET)
    __Vectors_End                            0x60002400   Data           0  startup_mimxrt1052.o(RESET)
    __main                                   0x60002401   Thumb Code     0  entry.o(.ARM.Collect$$$$00000000)
    _main_stk                                0x60002401   Thumb Code     0  entry4.o(.ARM.Collect$$$$00000003)
    _main_scatterload                        0x60002405   Thumb Code     0  entry5.o(.ARM.Collect$$$$00000004)
    __main_after_scatterload                 0x60002409   Thumb Code     0  entry5.o(.ARM.Collect$$$$00000004)
    _main_clock                              0x60002409   Thumb Code     0  entry7b.o(.ARM.Collect$$$$00000008)
    _main_cpp_init                           0x60002409   Thumb Code     0  entry8b.o(.ARM.Collect$$$$0000000A)
    _main_init                               0x60002409   Thumb Code     0  entry9a.o(.ARM.Collect$$$$0000000B)
    __rt_final_cpp                           0x60002411   Thumb Code     0  entry10a.o(.ARM.Collect$$$$0000000D)
    __rt_final_exit                          0x60002411   Thumb Code     0  entry11a.o(.ARM.Collect$$$$0000000F)
    Reset_Handler                            0x60002415   Thumb Code    46  startup_mimxrt1052.o(.text)
    NMI_Handler                              0x60002443   Thumb Code     2  startup_mimxrt1052.o(.text)
    MemManage_Handler                        0x60002447   Thumb Code     2  startup_mimxrt1052.o(.text)
    BusFault_Handler                         0x60002449   Thumb Code     2  startup_mimxrt1052.o(.text)
    UsageFault_Handler                       0x6000244b   Thumb Code     2  startup_mimxrt1052.o(.text)
    SVC_Handler                              0x6000244d   Thumb Code     2  startup_mimxrt1052.o(.text)
    DebugMon_Handler                         0x6000244f   Thumb Code     2  startup_mimxrt1052.o(.text)
    PendSV_Handler                           0x60002451   Thumb Code     2  startup_mimxrt1052.o(.text)
    SysTick_Handler                          0x60002453   Thumb Code     2  startup_mimxrt1052.o(.text)
    DMA0_DMA16_IRQHandler                    0x60002455   Thumb Code     4  startup_mimxrt1052.o(.text)
    DMA1_DMA17_IRQHandler                    0x60002459   Thumb Code     4  startup_mimxrt1052.o(.text)
    DMA2_DMA18_IRQHandler                    0x6000245d   Thumb Code     4  startup_mimxrt1052.o(.text)
    DMA3_DMA19_IRQHandler                    0x60002461   Thumb Code     4  startup_mimxrt1052.o(.text)
    DMA4_DMA20_IRQHandler                    0x60002465   Thumb Code     4  startup_mimxrt1052.o(.text)
    DMA5_DMA21_IRQHandler                    0x60002469   Thumb Code     4  startup_mimxrt1052.o(.text)
    DMA6_DMA22_IRQHandler                    0x6000246d   Thumb Code     4  startup_mimxrt1052.o(.text)
    DMA7_DMA23_IRQHandler                    0x60002471   Thumb Code     4  startup_mimxrt1052.o(.text)
    DMA8_DMA24_IRQHandler                    0x60002475   Thumb Code     4  startup_mimxrt1052.o(.text)
    DMA9_DMA25_IRQHandler                    0x60002479   Thumb Code     4  startup_mimxrt1052.o(.text)
    DMA10_DMA26_IRQHandler                   0x6000247d   Thumb Code     4  startup_mimxrt1052.o(.text)
    DMA11_DMA27_IRQHandler                   0x60002481   Thumb Code     4  startup_mimxrt1052.o(.text)
    DMA12_DMA28_IRQHandler                   0x60002485   Thumb Code     4  startup_mimxrt1052.o(.text)
    DMA13_DMA29_IRQHandler                   0x60002489   Thumb Code     4  startup_mimxrt1052.o(.text)
    DMA14_DMA30_IRQHandler                   0x6000248d   Thumb Code     4  startup_mimxrt1052.o(.text)
    DMA15_DMA31_IRQHandler                   0x60002491   Thumb Code     4  startup_mimxrt1052.o(.text)
    DMA_ERROR_IRQHandler                     0x60002495   Thumb Code     4  startup_mimxrt1052.o(.text)
    LPUART1_IRQHandler                       0x60002499   Thumb Code     4  startup_mimxrt1052.o(.text)
    LPUART2_IRQHandler                       0x6000249d   Thumb Code     4  startup_mimxrt1052.o(.text)
    LPUART3_IRQHandler                       0x600024a1   Thumb Code     4  startup_mimxrt1052.o(.text)
    LPUART4_IRQHandler                       0x600024a5   Thumb Code     4  startup_mimxrt1052.o(.text)
    LPUART5_IRQHandler                       0x600024a9   Thumb Code     4  startup_mimxrt1052.o(.text)
    LPUART6_IRQHandler                       0x600024ad   Thumb Code     4  startup_mimxrt1052.o(.text)
    LPUART7_IRQHandler                       0x600024b1   Thumb Code     4  startup_mimxrt1052.o(.text)
    LPUART8_IRQHandler                       0x600024b5   Thumb Code     4  startup_mimxrt1052.o(.text)
    LPI2C1_IRQHandler                        0x600024b9   Thumb Code     4  startup_mimxrt1052.o(.text)
    LPI2C2_IRQHandler                        0x600024bd   Thumb Code     4  startup_mimxrt1052.o(.text)
    LPI2C3_IRQHandler                        0x600024c1   Thumb Code     4  startup_mimxrt1052.o(.text)
    LPI2C4_IRQHandler                        0x600024c5   Thumb Code     4  startup_mimxrt1052.o(.text)
    LPSPI1_IRQHandler                        0x600024c9   Thumb Code     4  startup_mimxrt1052.o(.text)
    LPSPI2_IRQHandler                        0x600024cd   Thumb Code     4  startup_mimxrt1052.o(.text)
    LPSPI3_IRQHandler                        0x600024d1   Thumb Code     4  startup_mimxrt1052.o(.text)
    LPSPI4_IRQHandler                        0x600024d5   Thumb Code     4  startup_mimxrt1052.o(.text)
    CAN1_IRQHandler                          0x600024d9   Thumb Code     4  startup_mimxrt1052.o(.text)
    CAN2_IRQHandler                          0x600024dd   Thumb Code     4  startup_mimxrt1052.o(.text)
    SAI1_IRQHandler                          0x600024e1   Thumb Code     4  startup_mimxrt1052.o(.text)
    SAI2_IRQHandler                          0x600024e5   Thumb Code     4  startup_mimxrt1052.o(.text)
    SAI3_RX_IRQHandler                       0x600024e9   Thumb Code     4  startup_mimxrt1052.o(.text)
    SAI3_TX_IRQHandler                       0x600024ed   Thumb Code     4  startup_mimxrt1052.o(.text)
    SPDIF_IRQHandler                         0x600024f1   Thumb Code     4  startup_mimxrt1052.o(.text)
    FLEXIO1_IRQHandler                       0x600024f5   Thumb Code     4  startup_mimxrt1052.o(.text)
    FLEXIO2_IRQHandler                       0x600024f9   Thumb Code     4  startup_mimxrt1052.o(.text)
    FLEXSPI_IRQHandler                       0x600024fd   Thumb Code     4  startup_mimxrt1052.o(.text)
    USDHC1_IRQHandler                        0x60002501   Thumb Code     4  startup_mimxrt1052.o(.text)
    USDHC2_IRQHandler                        0x60002505   Thumb Code     4  startup_mimxrt1052.o(.text)
    ENET_IRQHandler                          0x60002509   Thumb Code     4  startup_mimxrt1052.o(.text)
    ENET_1588_Timer_IRQHandler               0x6000250d   Thumb Code     4  startup_mimxrt1052.o(.text)
    ACMP1_IRQHandler                         0x60002511   Thumb Code     0  startup_mimxrt1052.o(.text)
    ACMP2_IRQHandler                         0x60002511   Thumb Code     0  startup_mimxrt1052.o(.text)
    ACMP3_IRQHandler                         0x60002511   Thumb Code     0  startup_mimxrt1052.o(.text)
    ACMP4_IRQHandler                         0x60002511   Thumb Code     0  startup_mimxrt1052.o(.text)
    ADC1_IRQHandler                          0x60002511   Thumb Code     0  startup_mimxrt1052.o(.text)
    ADC2_IRQHandler                          0x60002511   Thumb Code     0  startup_mimxrt1052.o(.text)
    ADC_ETC_ERROR_IRQ_IRQHandler             0x60002511   Thumb Code     0  startup_mimxrt1052.o(.text)
    ADC_ETC_IRQ0_IRQHandler                  0x60002511   Thumb Code     0  startup_mimxrt1052.o(.text)
    ADC_ETC_IRQ1_IRQHandler                  0x60002511   Thumb Code     0  startup_mimxrt1052.o(.text)
    ADC_ETC_IRQ2_IRQHandler                  0x60002511   Thumb Code     0  startup_mimxrt1052.o(.text)
    ANATOP_EVENT0_IRQHandler                 0x60002511   Thumb Code     0  startup_mimxrt1052.o(.text)
    ANATOP_EVENT1_IRQHandler                 0x60002511   Thumb Code     0  startup_mimxrt1052.o(.text)
    ANATOP_TAMP_LOW_HIGH_IRQHandler          0x60002511   Thumb Code     0  startup_mimxrt1052.o(.text)
    ANATOP_TEMP_PANIC_IRQHandler             0x60002511   Thumb Code     0  startup_mimxrt1052.o(.text)
    BEE_IRQHandler                           0x60002511   Thumb Code     0  startup_mimxrt1052.o(.text)
    CAN1_DriverIRQHandler                    0x60002511   Thumb Code     0  startup_mimxrt1052.o(.text)
    CAN2_DriverIRQHandler                    0x60002511   Thumb Code     0  startup_mimxrt1052.o(.text)
    CCM_1_IRQHandler                         0x60002511   Thumb Code     0  startup_mimxrt1052.o(.text)
    CCM_2_IRQHandler                         0x60002511   Thumb Code     0  startup_mimxrt1052.o(.text)
    CORE_IRQHandler                          0x60002511   Thumb Code     0  startup_mimxrt1052.o(.text)
    CSU_IRQHandler                           0x60002511   Thumb Code     0  startup_mimxrt1052.o(.text)
    CTI0_ERROR_IRQHandler                    0x60002511   Thumb Code     0  startup_mimxrt1052.o(.text)
    CTI1_ERROR_IRQHandler                    0x60002511   Thumb Code     0  startup_mimxrt1052.o(.text)
    DCDC_IRQHandler                          0x60002511   Thumb Code     0  startup_mimxrt1052.o(.text)
    DCP_IRQHandler                           0x60002511   Thumb Code     0  startup_mimxrt1052.o(.text)
    DCP_VMI_IRQHandler                       0x60002511   Thumb Code     0  startup_mimxrt1052.o(.text)
    DMA_ERROR_DriverIRQHandler               0x60002511   Thumb Code     0  startup_mimxrt1052.o(.text)
    DefaultISR                               0x60002511   Thumb Code     0  startup_mimxrt1052.o(.text)
    ENC1_IRQHandler                          0x60002511   Thumb Code     0  startup_mimxrt1052.o(.text)
    ENC2_IRQHandler                          0x60002511   Thumb Code     0  startup_mimxrt1052.o(.text)
    ENC3_IRQHandler                          0x60002511   Thumb Code     0  startup_mimxrt1052.o(.text)
    ENC4_IRQHandler                          0x60002511   Thumb Code     0  startup_mimxrt1052.o(.text)
    ENET_1588_Timer_DriverIRQHandler         0x60002511   Thumb Code     0  startup_mimxrt1052.o(.text)
    ENET_DriverIRQHandler                    0x60002511   Thumb Code     0  startup_mimxrt1052.o(.text)
    EWM_IRQHandler                           0x60002511   Thumb Code     0  startup_mimxrt1052.o(.text)
    FLEXIO1_DriverIRQHandler                 0x60002511   Thumb Code     0  startup_mimxrt1052.o(.text)
    FLEXIO2_DriverIRQHandler                 0x60002511   Thumb Code     0  startup_mimxrt1052.o(.text)
    FLEXRAM_IRQHandler                       0x60002511   Thumb Code     0  startup_mimxrt1052.o(.text)
    GPC_IRQHandler                           0x60002511   Thumb Code     0  startup_mimxrt1052.o(.text)
    GPIO1_Combined_0_15_IRQHandler           0x60002511   Thumb Code     0  startup_mimxrt1052.o(.text)
    GPIO1_Combined_16_31_IRQHandler          0x60002511   Thumb Code     0  startup_mimxrt1052.o(.text)
    GPIO1_INT0_IRQHandler                    0x60002511   Thumb Code     0  startup_mimxrt1052.o(.text)
    GPIO1_INT1_IRQHandler                    0x60002511   Thumb Code     0  startup_mimxrt1052.o(.text)
    GPIO1_INT2_IRQHandler                    0x60002511   Thumb Code     0  startup_mimxrt1052.o(.text)
    GPIO1_INT3_IRQHandler                    0x60002511   Thumb Code     0  startup_mimxrt1052.o(.text)
    GPIO1_INT4_IRQHandler                    0x60002511   Thumb Code     0  startup_mimxrt1052.o(.text)
    GPIO1_INT5_IRQHandler                    0x60002511   Thumb Code     0  startup_mimxrt1052.o(.text)
    GPIO1_INT6_IRQHandler                    0x60002511   Thumb Code     0  startup_mimxrt1052.o(.text)
    GPIO1_INT7_IRQHandler                    0x60002511   Thumb Code     0  startup_mimxrt1052.o(.text)
    GPIO2_Combined_0_15_IRQHandler           0x60002511   Thumb Code     0  startup_mimxrt1052.o(.text)
    GPIO2_Combined_16_31_IRQHandler          0x60002511   Thumb Code     0  startup_mimxrt1052.o(.text)
    GPIO3_Combined_0_15_IRQHandler           0x60002511   Thumb Code     0  startup_mimxrt1052.o(.text)
    GPIO3_Combined_16_31_IRQHandler          0x60002511   Thumb Code     0  startup_mimxrt1052.o(.text)
    GPIO4_Combined_0_15_IRQHandler           0x60002511   Thumb Code     0  startup_mimxrt1052.o(.text)
    GPIO4_Combined_16_31_IRQHandler          0x60002511   Thumb Code     0  startup_mimxrt1052.o(.text)
    GPIO5_Combined_0_15_IRQHandler           0x60002511   Thumb Code     0  startup_mimxrt1052.o(.text)
    GPIO5_Combined_16_31_IRQHandler          0x60002511   Thumb Code     0  startup_mimxrt1052.o(.text)
    GPR_IRQ_IRQHandler                       0x60002511   Thumb Code     0  startup_mimxrt1052.o(.text)
    GPT1_IRQHandler                          0x60002511   Thumb Code     0  startup_mimxrt1052.o(.text)
    GPT2_IRQHandler                          0x60002511   Thumb Code     0  startup_mimxrt1052.o(.text)
    KPP_IRQHandler                           0x60002511   Thumb Code     0  startup_mimxrt1052.o(.text)
    LCDIF_IRQHandler                         0x60002511   Thumb Code     0  startup_mimxrt1052.o(.text)
    NMI_WAKEUP_IRQHandler                    0x60002511   Thumb Code     0  startup_mimxrt1052.o(.text)
    PIT_IRQHandler                           0x60002511   Thumb Code     0  startup_mimxrt1052.o(.text)
    PWM1_0_IRQHandler                        0x60002511   Thumb Code     0  startup_mimxrt1052.o(.text)
    PWM1_1_IRQHandler                        0x60002511   Thumb Code     0  startup_mimxrt1052.o(.text)
    PWM1_2_IRQHandler                        0x60002511   Thumb Code     0  startup_mimxrt1052.o(.text)
    PWM1_3_IRQHandler                        0x60002511   Thumb Code     0  startup_mimxrt1052.o(.text)
    PWM1_FAULT_IRQHandler                    0x60002511   Thumb Code     0  startup_mimxrt1052.o(.text)
    PWM2_0_IRQHandler                        0x60002511   Thumb Code     0  startup_mimxrt1052.o(.text)
    PWM2_1_IRQHandler                        0x60002511   Thumb Code     0  startup_mimxrt1052.o(.text)
    PWM2_2_IRQHandler                        0x60002511   Thumb Code     0  startup_mimxrt1052.o(.text)
    PWM2_3_IRQHandler                        0x60002511   Thumb Code     0  startup_mimxrt1052.o(.text)
    PWM2_FAULT_IRQHandler                    0x60002511   Thumb Code     0  startup_mimxrt1052.o(.text)
    PWM3_0_IRQHandler                        0x60002511   Thumb Code     0  startup_mimxrt1052.o(.text)
    PWM3_1_IRQHandler                        0x60002511   Thumb Code     0  startup_mimxrt1052.o(.text)
    PWM3_2_IRQHandler                        0x60002511   Thumb Code     0  startup_mimxrt1052.o(.text)
    PWM3_3_IRQHandler                        0x60002511   Thumb Code     0  startup_mimxrt1052.o(.text)
    PWM3_FAULT_IRQHandler                    0x60002511   Thumb Code     0  startup_mimxrt1052.o(.text)
    PWM4_0_IRQHandler                        0x60002511   Thumb Code     0  startup_mimxrt1052.o(.text)
    PWM4_1_IRQHandler                        0x60002511   Thumb Code     0  startup_mimxrt1052.o(.text)
    PWM4_2_IRQHandler                        0x60002511   Thumb Code     0  startup_mimxrt1052.o(.text)
    PWM4_3_IRQHandler                        0x60002511   Thumb Code     0  startup_mimxrt1052.o(.text)
    PWM4_FAULT_IRQHandler                    0x60002511   Thumb Code     0  startup_mimxrt1052.o(.text)
    PXP_IRQHandler                           0x60002511   Thumb Code     0  startup_mimxrt1052.o(.text)
    RTWDOG_IRQHandler                        0x60002511   Thumb Code     0  startup_mimxrt1052.o(.text)
    Reserved115_IRQHandler                   0x60002511   Thumb Code     0  startup_mimxrt1052.o(.text)
    Reserved123_IRQHandler                   0x60002511   Thumb Code     0  startup_mimxrt1052.o(.text)
    Reserved143_IRQHandler                   0x60002511   Thumb Code     0  startup_mimxrt1052.o(.text)
    Reserved144_IRQHandler                   0x60002511   Thumb Code     0  startup_mimxrt1052.o(.text)
    Reserved168_IRQHandler                   0x60002511   Thumb Code     0  startup_mimxrt1052.o(.text)
    Reserved169_IRQHandler                   0x60002511   Thumb Code     0  startup_mimxrt1052.o(.text)
    Reserved170_IRQHandler                   0x60002511   Thumb Code     0  startup_mimxrt1052.o(.text)
    Reserved171_IRQHandler                   0x60002511   Thumb Code     0  startup_mimxrt1052.o(.text)
    Reserved172_IRQHandler                   0x60002511   Thumb Code     0  startup_mimxrt1052.o(.text)
    Reserved173_IRQHandler                   0x60002511   Thumb Code     0  startup_mimxrt1052.o(.text)
    Reserved68_IRQHandler                    0x60002511   Thumb Code     0  startup_mimxrt1052.o(.text)
    Reserved86_IRQHandler                    0x60002511   Thumb Code     0  startup_mimxrt1052.o(.text)
    Reserved87_IRQHandler                    0x60002511   Thumb Code     0  startup_mimxrt1052.o(.text)
    SAI1_DriverIRQHandler                    0x60002511   Thumb Code     0  startup_mimxrt1052.o(.text)
    SAI2_DriverIRQHandler                    0x60002511   Thumb Code     0  startup_mimxrt1052.o(.text)
    SAI3_RX_DriverIRQHandler                 0x60002511   Thumb Code     0  startup_mimxrt1052.o(.text)
    SAI3_TX_DriverIRQHandler                 0x60002511   Thumb Code     0  startup_mimxrt1052.o(.text)
    SEMC_IRQHandler                          0x60002511   Thumb Code     0  startup_mimxrt1052.o(.text)
    SJC_ARM_DEBUG_IRQHandler                 0x60002511   Thumb Code     0  startup_mimxrt1052.o(.text)
    SJC_IRQHandler                           0x60002511   Thumb Code     0  startup_mimxrt1052.o(.text)
    SNVS_HP_WRAPPER_IRQHandler               0x60002511   Thumb Code     0  startup_mimxrt1052.o(.text)
    SNVS_HP_WRAPPER_TZ_IRQHandler            0x60002511   Thumb Code     0  startup_mimxrt1052.o(.text)
    SNVS_LP_WRAPPER_IRQHandler               0x60002511   Thumb Code     0  startup_mimxrt1052.o(.text)
    SPDIF_DriverIRQHandler                   0x60002511   Thumb Code     0  startup_mimxrt1052.o(.text)
    SRC_IRQHandler                           0x60002511   Thumb Code     0  startup_mimxrt1052.o(.text)
    TMR1_IRQHandler                          0x60002511   Thumb Code     0  startup_mimxrt1052.o(.text)
    TMR2_IRQHandler                          0x60002511   Thumb Code     0  startup_mimxrt1052.o(.text)
    TMR3_IRQHandler                          0x60002511   Thumb Code     0  startup_mimxrt1052.o(.text)
    TMR4_IRQHandler                          0x60002511   Thumb Code     0  startup_mimxrt1052.o(.text)
    TRNG_IRQHandler                          0x60002511   Thumb Code     0  startup_mimxrt1052.o(.text)
    TSC_DIG_IRQHandler                       0x60002511   Thumb Code     0  startup_mimxrt1052.o(.text)
    USB_OTG1_IRQHandler                      0x60002511   Thumb Code     0  startup_mimxrt1052.o(.text)
    USB_OTG2_IRQHandler                      0x60002511   Thumb Code     0  startup_mimxrt1052.o(.text)
    USB_PHY1_IRQHandler                      0x60002511   Thumb Code     0  startup_mimxrt1052.o(.text)
    USB_PHY2_IRQHandler                      0x60002511   Thumb Code     0  startup_mimxrt1052.o(.text)
    USDHC1_DriverIRQHandler                  0x60002511   Thumb Code     0  startup_mimxrt1052.o(.text)
    USDHC2_DriverIRQHandler                  0x60002511   Thumb Code     0  startup_mimxrt1052.o(.text)
    WDOG1_IRQHandler                         0x60002511   Thumb Code     0  startup_mimxrt1052.o(.text)
    WDOG2_IRQHandler                         0x60002511   Thumb Code     0  startup_mimxrt1052.o(.text)
    XBAR1_IRQ_0_1_IRQHandler                 0x60002511   Thumb Code     0  startup_mimxrt1052.o(.text)
    XBAR1_IRQ_2_3_IRQHandler                 0x60002511   Thumb Code     0  startup_mimxrt1052.o(.text)
    __aeabi_uldivmod                         0x600025ed   Thumb Code    98  uldiv.o(.text)
    __aeabi_memcpy                           0x6000264f   Thumb Code    36  memcpya.o(.text)
    __aeabi_memcpy4                          0x6000264f   Thumb Code     0  memcpya.o(.text)
    __aeabi_memcpy8                          0x6000264f   Thumb Code     0  memcpya.o(.text)
    __aeabi_memset                           0x60002673   Thumb Code    14  memseta.o(.text)
    __aeabi_memset4                          0x60002673   Thumb Code     0  memseta.o(.text)
    __aeabi_memset8                          0x60002673   Thumb Code     0  memseta.o(.text)
    __aeabi_memclr                           0x60002681   Thumb Code     4  memseta.o(.text)
    __aeabi_memclr4                          0x60002681   Thumb Code     0  memseta.o(.text)
    __aeabi_memclr8                          0x60002681   Thumb Code     0  memseta.o(.text)
    _memset$wrapper                          0x60002685   Thumb Code    18  memseta.o(.text)
    strlen                                   0x60002697   Thumb Code    14  strlen.o(.text)
    __aeabi_llsl                             0x600026a5   Thumb Code    30  llshl.o(.text)
    _ll_shift_l                              0x600026a5   Thumb Code     0  llshl.o(.text)
    __aeabi_llsr                             0x600026c3   Thumb Code    32  llushr.o(.text)
    _ll_ushift_r                             0x600026c3   Thumb Code     0  llushr.o(.text)
    __scatterload                            0x600026e5   Thumb Code    28  init.o(.text)
    __scatterload_rt2                        0x600026e5   Thumb Code     0  init.o(.text)
    __decompress                             0x60002709   Thumb Code     0  __dczerorl2.o(.text)
    __decompress1                            0x60002709   Thumb Code    86  __dczerorl2.o(.text)
    Long Thumb to Thumb Veneer to FLEXSPI_UpdateLUT 0x6000275f   Thumb Code    10  anon$$obj.o(Veneer$$Code)
    Long Thumb to Thumb Veneer to flexspi_nor_get_vendor_id 0x60002769   Thumb Code    10  anon$$obj.o(Veneer$$Code)
    Long Thumb to Thumb Veneer to flexspi_nor_flash_read_sector 0x60002773   Thumb Code    10  anon$$obj.o(Veneer$$Code)
    Long Thumb to Thumb Veneer to flexspi_nor_flash_erase_sector 0x6000277d   Thumb Code    10  anon$$obj.o(Veneer$$Code)
    Long Thumb to Thumb Veneer to flexspi_nor_flash_page_program 0x60002787   Thumb Code    10  anon$$obj.o(Veneer$$Code)
    FLEXSPI_Init                             0x60002791   Thumb Code   384  fsl_flexspi.o(fingertech_flashop)
    FLEXSPI_GetDefaultConfig                 0x60002911   Thumb Code    92  fsl_flexspi.o(fingertech_flashop)
    FLEXSPI_Deinit                           0x6000296d   Thumb Code    12  fsl_flexspi.o(fingertech_flashop)
    FLEXSPI_SetFlashConfig                   0x60002979   Thumb Code   330  fsl_flexspi.o(fingertech_flashop)
    FLEXSPI_TransferCreateHandle             0x60002ac3   Thumb Code   102  fsl_flexspi.o(fingertech_flashop)
    FLEXSPI_TransferNonBlocking              0x60002b29   Thumb Code   304  fsl_flexspi.o(fingertech_flashop)
    FLEXSPI_TransferGetCount                 0x60002c59   Thumb Code    54  fsl_flexspi.o(fingertech_flashop)
    FLEXSPI_TransferAbort                    0x60002c8f   Thumb Code    44  fsl_flexspi.o(fingertech_flashop)
    BOARD_BootClockRUN                       0x60002cf9   Thumb Code   562  clock_config.o(i.BOARD_BootClockRUN)
    BOARD_ConfigMPU                          0x60002fc5   Thumb Code   390  board.o(i.BOARD_ConfigMPU)
    BOARD_InitPins                           0x60003179   Thumb Code   228  pin_mux.o(i.BOARD_InitPins)
    BOARD_PullCameraPowerDownPin             0x6000326d   Thumb Code    30  fingertech_camera.o(i.BOARD_PullCameraPowerDownPin)
    CLOCK_GetFreq                            0x600036d5   Thumb Code   344  fsl_clock.o(i.CLOCK_GetFreq)
    CLOCK_GetPllFreq                         0x60003931   Thumb Code   530  fsl_clock.o(i.CLOCK_GetPllFreq)
    CLOCK_GetSysPfdFreq                      0x60003b5d   Thumb Code   100  fsl_clock.o(i.CLOCK_GetSysPfdFreq)
    CLOCK_GetUsb1PfdFreq                     0x60003bc9   Thumb Code   100  fsl_clock.o(i.CLOCK_GetUsb1PfdFreq)
    CLOCK_InitArmPll                         0x60003c35   Thumb Code    82  fsl_clock.o(i.CLOCK_InitArmPll)
    CSI_ClearFifo                            0x60004125   Thumb Code    56  fsl_csi.o(i.CSI_ClearFifo)
    CSI_EnableFifoDmaRequest                 0x6000415d   Thumb Code    44  fsl_csi.o(i.CSI_EnableFifoDmaRequest)
    CSI_EnableInterrupts                     0x60004189   Thumb Code    32  fsl_csi.o(i.CSI_EnableInterrupts)
    CSI_GetDefaultConfig                     0x600041a9   Thumb Code    56  fsl_csi.o(i.CSI_GetDefaultConfig)
    CSI_IRQHandler                           0x60004279   Thumb Code    40  fingertech_exit.o(i.CSI_IRQHandler)
    CSI_Init                                 0x600042a9   Thumb Code   254  fsl_csi.o(i.CSI_Init)
    CSI_ReflashFifoDma                       0x600043d9   Thumb Code    42  fsl_csi.o(i.CSI_ReflashFifoDma)
    CSI_Reset                                0x60004405   Thumb Code    78  fsl_csi.o(i.CSI_Reset)
    CSI_SetRxBufferAddr                      0x60004459   Thumb Code    10  fsl_csi.o(i.CSI_SetRxBufferAddr)
    Cdfinger_AttributeTransfer               0x6000447d   Thumb Code    64  fingertech_common.o(i.Cdfinger_AttributeTransfer)
    Cdfinger_ChangeExposureTime              0x600044d5   Thumb Code    68  fingertech_common.o(i.Cdfinger_ChangeExposureTime)
    Cdfinger_EnrollPrepareTransfer           0x60004535   Thumb Code    64  fingertech_common.o(i.Cdfinger_EnrollPrepareTransfer)
    Cdfinger_GetImage                        0x6000458d   Thumb Code   174  fingertech_common.o(i.Cdfinger_GetImage)
    Cdfinger_MoveImage                       0x60004649   Thumb Code   154  fingertech_common.o(i.Cdfinger_MoveImage)
    Cdfinger_RecPrepareTransfer              0x60004709   Thumb Code    68  fingertech_common.o(i.Cdfinger_RecPrepareTransfer)
    Cdfinger_RetryRecPrepareTransfer         0x60004769   Thumb Code    42  fingertech_common.o(i.Cdfinger_RetryRecPrepareTransfer)
    Cdfinger_SetCoordinates                  0x600047a5   Thumb Code   148  fingertech_common.o(i.Cdfinger_SetCoordinates)
    DMA0_DMA16_DriverIRQHandler              0x600048fd   Thumb Code    48  fsl_edma.o(i.DMA0_DMA16_DriverIRQHandler)
    DMA10_DMA26_DriverIRQHandler             0x60004935   Thumb Code    48  fsl_edma.o(i.DMA10_DMA26_DriverIRQHandler)
    DMA11_DMA27_DriverIRQHandler             0x6000496d   Thumb Code    48  fsl_edma.o(i.DMA11_DMA27_DriverIRQHandler)
    DMA12_DMA28_DriverIRQHandler             0x600049a5   Thumb Code    48  fsl_edma.o(i.DMA12_DMA28_DriverIRQHandler)
    DMA13_DMA29_DriverIRQHandler             0x600049dd   Thumb Code    48  fsl_edma.o(i.DMA13_DMA29_DriverIRQHandler)
    DMA14_DMA30_DriverIRQHandler             0x60004a15   Thumb Code    48  fsl_edma.o(i.DMA14_DMA30_DriverIRQHandler)
    DMA15_DMA31_DriverIRQHandler             0x60004a4d   Thumb Code    48  fsl_edma.o(i.DMA15_DMA31_DriverIRQHandler)
    DMA1_DMA17_DriverIRQHandler              0x60004a85   Thumb Code    48  fsl_edma.o(i.DMA1_DMA17_DriverIRQHandler)
    DMA2_DMA18_DriverIRQHandler              0x60004abd   Thumb Code    48  fsl_edma.o(i.DMA2_DMA18_DriverIRQHandler)
    DMA3_DMA19_DriverIRQHandler              0x60004af5   Thumb Code    48  fsl_edma.o(i.DMA3_DMA19_DriverIRQHandler)
    DMA4_DMA20_DriverIRQHandler              0x60004b2d   Thumb Code    48  fsl_edma.o(i.DMA4_DMA20_DriverIRQHandler)
    DMA5_DMA21_DriverIRQHandler              0x60004b65   Thumb Code    48  fsl_edma.o(i.DMA5_DMA21_DriverIRQHandler)
    DMA6_DMA22_DriverIRQHandler              0x60004b9d   Thumb Code    48  fsl_edma.o(i.DMA6_DMA22_DriverIRQHandler)
    DMA7_DMA23_DriverIRQHandler              0x60004bd5   Thumb Code    48  fsl_edma.o(i.DMA7_DMA23_DriverIRQHandler)
    DMA8_DMA24_DriverIRQHandler              0x60004c0d   Thumb Code    48  fsl_edma.o(i.DMA8_DMA24_DriverIRQHandler)
    DMA9_DMA25_DriverIRQHandler              0x60004c45   Thumb Code    48  fsl_edma.o(i.DMA9_DMA25_DriverIRQHandler)
    DMAMUX_Init                              0x60004d65   Thumb Code    28  fsl_dmamux.o(i.DMAMUX_Init)
    DMA_transfer_data                        0x60004df9   Thumb Code    36  fingertech_spiconfig.o(i.DMA_transfer_data)
    DbgConsole_Printf                        0x60004e29   Thumb Code    60  fsl_debug_console.o(i.DbgConsole_Printf)
    DistinguishCamera                        0x60004ec1   Thumb Code   210  fingertech_camera.o(i.DistinguishCamera)
    EDMA_Callback                            0x60004fb5   Thumb Code   104  fingertech_spiconfig.o(i.EDMA_Callback)
    EDMA_CreateHandle                        0x60005035   Thumb Code   172  fsl_edma.o(i.EDMA_CreateHandle)
    EDMA_EnableChannelInterrupts             0x6000513d   Thumb Code   102  fsl_edma.o(i.EDMA_EnableChannelInterrupts)
    EDMA_GetChannelStatusFlags               0x600051e9   Thumb Code    70  fsl_edma.o(i.EDMA_GetChannelStatusFlags)
    EDMA_GetDefaultConfig                    0x60005275   Thumb Code    34  fsl_edma.o(i.EDMA_GetDefaultConfig)
    EDMA_HandleIRQ                           0x60005331   Thumb Code   198  fsl_edma.o(i.EDMA_HandleIRQ)
    EDMA_Init                                0x60005421   Thumb Code   100  fsl_edma.o(i.EDMA_Init)
    EDMA_ResetChannel                        0x600055f9   Thumb Code    36  fsl_edma.o(i.EDMA_ResetChannel)
    EDMA_SetCallback                         0x60005661   Thumb Code    30  fsl_edma.o(i.EDMA_SetCallback)
    EDMA_SetTransferConfig                   0x600056a9   Thumb Code    80  fsl_edma.o(i.EDMA_SetTransferConfig)
    EDMA_StartTransfer                       0x60005771   Thumb Code   116  fsl_edma.o(i.EDMA_StartTransfer)
    EDMA_TcdReset                            0x6000580d   Thumb Code    70  fsl_edma.o(i.EDMA_TcdReset)
    EDMA_TcdSetTransferConfig                0x60005899   Thumb Code   146  fsl_edma.o(i.EDMA_TcdSetTransferConfig)
    FLEXSPI_GetInstance                      0x60005a35   Thumb Code    46  fsl_flexspi.o(i.FLEXSPI_GetInstance)
    FingerTech_BspInit                       0x60005ab5   Thumb Code    54  fingertech_common.o(i.FingerTech_BspInit)
    FingerTech_Delayms                       0x60005aed   Thumb Code    36  fingertech_common.o(i.FingerTech_Delayms)
    FingerTech_FlashConfig                   0x60005b15   Thumb Code   168  fingertech_flashconfig.o(i.FingerTech_FlashConfig)
    FingerTech_GetImg                        0x60005bc9   Thumb Code    34  fingertech_camera.o(i.FingerTech_GetImg)
    FingerTech_LedInit                       0x60005bf5   Thumb Code    62  fingertech_common.o(i.FingerTech_LedInit)
    FingerTech_NVIC_SetGrouping              0x60005c45   Thumb Code    32  fingertech_exit.o(i.FingerTech_NVIC_SetGrouping)
    FingerTech_change_exposureGain           0x60005c6d   Thumb Code    16  fingertech_spiconfig.o(i.FingerTech_change_exposureGain)
    FingerTech_change_exposureTime           0x60005c81   Thumb Code    74  fingertech_spiconfig.o(i.FingerTech_change_exposureTime)
    FingerTech_move_image                    0x60005cd1   Thumb Code    76  fingertech_spiconfig.o(i.FingerTech_move_image)
    Fingertech_SpiConfig                     0x60005dc5   Thumb Code   218  fingertech_spiconfig.o(i.Fingertech_SpiConfig)
    Fingertech_cameraconfig                  0x60005ed5   Thumb Code    84  fingertech_camera.o(i.Fingertech_cameraconfig)
    Fingertech_cameragpioinit                0x60005f35   Thumb Code   472  fingertech_camera.o(i.Fingertech_cameragpioinit)
    Fingertech_camerainitresource            0x60006119   Thumb Code    36  fingertech_camera.o(i.Fingertech_camerainitresource)
    Fingertech_sp0828gpioinit                0x6000614d   Thumb Code   108  fingertech_i2c_api.o(i.Fingertech_sp0828gpioinit)
    Fingertech_sp0828iicconfig               0x600061c5   Thumb Code    58  fingertech_i2c_api.o(i.Fingertech_sp0828iicconfig)
    Fingertech_sp0828iicreaddata             0x60006211   Thumb Code    48  fingertech_i2c_api.o(i.Fingertech_sp0828iicreaddata)
    Fingertech_sp0828iicwritedata            0x60006245   Thumb Code    60  fingertech_i2c_api.o(i.Fingertech_sp0828iicwritedata)
    FusionImg                                0x60006285   Thumb Code    72  fingertech_algorithm.o(i.FusionImg)
    GPIO_PinInit                             0x60006341   Thumb Code    92  fsl_gpio.o(i.GPIO_PinInit)
    GPIO_PinSetInterruptConfig               0x600063a1   Thumb Code   138  fsl_gpio.o(i.GPIO_PinSetInterruptConfig)
    GPIO_PinWrite                            0x6000642d   Thumb Code    50  fsl_gpio.o(i.GPIO_PinWrite)
    HardFault_Handler                        0x600064a5   Thumb Code     4  fingertech_exit.o(i.HardFault_Handler)
    IO_Transfer                              0x60006535   Thumb Code    64  fsl_io.o(i.IO_Transfer)
    LOG_Pop                                  0x60006595   Thumb Code    34  fsl_log.o(i.LOG_Pop)
    LOG_Push                                 0x600065b9   Thumb Code    32  fsl_log.o(i.LOG_Push)
    LPI2C1_DriverIRQHandler                  0x60006609   Thumb Code    12  fsl_lpi2c.o(i.LPI2C1_DriverIRQHandler)
    LPI2C2_DriverIRQHandler                  0x60006619   Thumb Code    12  fsl_lpi2c.o(i.LPI2C2_DriverIRQHandler)
    LPI2C3_DriverIRQHandler                  0x60006629   Thumb Code    12  fsl_lpi2c.o(i.LPI2C3_DriverIRQHandler)
    LPI2C4_DriverIRQHandler                  0x60006639   Thumb Code    12  fsl_lpi2c.o(i.LPI2C4_DriverIRQHandler)
    LPI2C_CheckForBusyBus                    0x60006649   Thumb Code    34  fsl_lpi2c.o(i.LPI2C_CheckForBusyBus)
    LPI2C_GetInstance                        0x6000676d   Thumb Code    38  fsl_lpi2c.o(i.LPI2C_GetInstance)
    LPI2C_MasterCheckAndClearError           0x600067c1   Thumb Code    98  fsl_lpi2c.o(i.LPI2C_MasterCheckAndClearError)
    LPI2C_MasterGetDefaultConfig             0x6000685d   Thumb Code    44  fsl_lpi2c.o(i.LPI2C_MasterGetDefaultConfig)
    LPI2C_MasterInit                         0x600068a9   Thumb Code   302  fsl_lpi2c.o(i.LPI2C_MasterInit)
    LPI2C_MasterReceive                      0x600069e1   Thumb Code   118  fsl_lpi2c.o(i.LPI2C_MasterReceive)
    LPI2C_MasterSend                         0x60006a8d   Thumb Code    70  fsl_lpi2c.o(i.LPI2C_MasterSend)
    LPI2C_MasterSetBaudRate                  0x60006afd   Thumb Code   286  fsl_lpi2c.o(i.LPI2C_MasterSetBaudRate)
    LPI2C_MasterStop                         0x60006c21   Thumb Code    74  fsl_lpi2c.o(i.LPI2C_MasterStop)
    LPI2C_MasterTransferBlocking             0x60006c6d   Thumb Code   312  fsl_lpi2c.o(i.LPI2C_MasterTransferBlocking)
    LPSPI1_DriverIRQHandler                  0x60006e49   Thumb Code    34  fsl_lpspi.o(i.LPSPI1_DriverIRQHandler)
    LPSPI2_DriverIRQHandler                  0x60006ea9   Thumb Code    34  fsl_lpspi.o(i.LPSPI2_DriverIRQHandler)
    LPSPI3_DriverIRQHandler                  0x60006f09   Thumb Code    34  fsl_lpspi.o(i.LPSPI3_DriverIRQHandler)
    LPSPI4_DriverIRQHandler                  0x60006f69   Thumb Code    34  fsl_lpspi.o(i.LPSPI4_DriverIRQHandler)
    LPSPI_CheckTransferArgument              0x60006fc9   Thumb Code   100  fsl_lpspi.o(i.LPSPI_CheckTransferArgument)
    LPSPI_GetInstance                        0x60007115   Thumb Code    52  fsl_lpspi.o(i.LPSPI_GetInstance)
    LPSPI_Reset                              0x600071a7   Thumb Code    22  fsl_lpspi.o(i.LPSPI_Reset)
    LPSPI_SetDummyData                       0x60007269   Thumb Code    20  fsl_lpspi.o(i.LPSPI_SetDummyData)
    LPSPI_SlaveInit                          0x600072d1   Thumb Code   168  fsl_lpspi.o(i.LPSPI_SlaveInit)
    LPSPI_SlaveTransferCreateHandleEDMA      0x600073a9   Thumb Code   118  fsl_lpspi_edma.o(i.LPSPI_SlaveTransferCreateHandleEDMA)
    LPSPI_SlaveTransferEDMA                  0x6000747d   Thumb Code  1134  fsl_lpspi_edma.o(i.LPSPI_SlaveTransferEDMA)
    LPUART1_DriverIRQHandler                 0x600078f5   Thumb Code    16  fsl_lpuart.o(i.LPUART1_DriverIRQHandler)
    LPUART2_DriverIRQHandler                 0x60007911   Thumb Code    16  fsl_lpuart.o(i.LPUART2_DriverIRQHandler)
    LPUART3_DriverIRQHandler                 0x6000792d   Thumb Code    16  fsl_lpuart.o(i.LPUART3_DriverIRQHandler)
    LPUART4_DriverIRQHandler                 0x60007949   Thumb Code    16  fsl_lpuart.o(i.LPUART4_DriverIRQHandler)
    LPUART5_DriverIRQHandler                 0x60007965   Thumb Code    16  fsl_lpuart.o(i.LPUART5_DriverIRQHandler)
    LPUART6_DriverIRQHandler                 0x60007981   Thumb Code    16  fsl_lpuart.o(i.LPUART6_DriverIRQHandler)
    LPUART7_DriverIRQHandler                 0x6000799d   Thumb Code    16  fsl_lpuart.o(i.LPUART7_DriverIRQHandler)
    LPUART8_DriverIRQHandler                 0x600079b9   Thumb Code    16  fsl_lpuart.o(i.LPUART8_DriverIRQHandler)
    LPUART_ClearStatusFlags                  0x600079d5   Thumb Code    82  fsl_lpuart.o(i.LPUART_ClearStatusFlags)
    LPUART_GetStatusFlags                    0x60007a2d   Thumb Code    16  fsl_lpuart.o(i.LPUART_GetStatusFlags)
    LPUART_ReadBlocking                      0x60007a3d   Thumb Code   204  fsl_lpuart.o(i.LPUART_ReadBlocking)
    LPUART_WriteBlocking                     0x60007b31   Thumb Code    54  fsl_lpuart.o(i.LPUART_WriteBlocking)
    M1_V1_DelayMs                            0x60007b91   Thumb Code    40  fingertech_camera.o(i.M1_V1_DelayMs)
    M1_V1_Init                               0x60007bbd   Thumb Code   230  fingertech_camera.o(i.M1_V1_Init)
    M1_V1_Start                              0x60007cb1   Thumb Code    44  fingertech_camera.o(i.M1_V1_Start)
    M1_V1_Stop                               0x60007ce1   Thumb Code     2  fingertech_camera.o(i.M1_V1_Stop)
    M1_V1__full_frame_size                   0x60007ce3   Thumb Code    60  fingertech_camera.o(i.M1_V1__full_frame_size)
    M1_V1__out_frame_size                    0x60007d1f   Thumb Code   128  fingertech_camera.o(i.M1_V1__out_frame_size)
    M1_V1_config_mclk_pclk                   0x60007d9f   Thumb Code    44  fingertech_camera.o(i.M1_V1_config_mclk_pclk)
    M1_V1_dvp_init                           0x60007dcd   Thumb Code    34  fingertech_camera.o(i.M1_V1_dvp_init)
    M1_V1_readid                             0x60007df5   Thumb Code    96  fingertech_camera.o(i.M1_V1_readid)
    M1_V1_reset                              0x60007e55   Thumb Code    28  fingertech_camera.o(i.M1_V1_reset)
    PIS1701_Init                             0x60007e71   Thumb Code   288  pis1701.o(i.PIS1701_Init)
    PIS1701_Start                            0x60007f9d   Thumb Code    40  pis1701.o(i.PIS1701_Start)
    PIS1701_Stop                             0x60007fc9   Thumb Code    10  pis1701.o(i.PIS1701_Stop)
    StrFormatPrintf                          0x6000845d   Thumb Code   558  fsl_str.o(i.StrFormatPrintf)
    SystemInit                               0x6000868d   Thumb Code   182  system_mimxrt1052.o(i.SystemInit)
    SystemInitHook                           0x60008759   Thumb Code     2  system_mimxrt1052.o(i.SystemInitHook)
    __0printf$8                              0x6000875d   Thumb Code    22  printf8.o(i.__0printf$8)
    __1printf$8                              0x6000875d   Thumb Code     0  printf8.o(i.__0printf$8)
    __2printf                                0x6000875d   Thumb Code     0  printf8.o(i.__0printf$8)
    __aeabi_assert                           0x6000877d   Thumb Code    24  fsl_assert.o(i.__aeabi_assert)
    __scatterload_copy                       0x600087c1   Thumb Code    14  handlers.o(i.__scatterload_copy)
    __scatterload_null                       0x600087cf   Thumb Code     2  handlers.o(i.__scatterload_null)
    __scatterload_zeroinit                   0x600087d1   Thumb Code    14  handlers.o(i.__scatterload_zeroinit)
    coordinate                               0x60008c45   Thumb Code   342  fingertech_algorithm.o(i.coordinate)
    fputc                                    0x60008da5   Thumb Code    14  fsl_debug_console.o(i.fputc)
    im_mean                                  0x60008db5   Thumb Code    68  fingertech_algorithm.o(i.im_mean)
    main                                     0x60008dfd   Thumb Code   100  main.o(i.main)
    one_Extrect_three                        0x60008e69   Thumb Code   378  fingertech_algorithm.o(i.one_Extrect_three)
    update_camera_cfg                        0x60008fed   Thumb Code    58  fingertech_flashconfig.o(i.update_camera_cfg)
    armPllConfig_BOARD_BootClockRUN          0x60009030   Data           8  clock_config.o(.constdata)
    sysPllConfig_BOARD_BootClockRUN          0x60009038   Data          16  clock_config.o(.constdata)
    usb1PllConfig_BOARD_BootClockRUN         0x60009048   Data           2  clock_config.o(.constdata)
    customLUT                                0x600090c0   Data         256  fingertech_flashconfig.o(.constdata)
    Region$$Table$$Base                      0x6000925c   Number         0  anon$$obj.o(Region$$Table)
    Region$$Table$$Limit                     0x600092ac   Number         0  anon$$obj.o(Region$$Table)
    retry_flag                               0x80000000   Data           1  fingertech_common.o(.data)
    receivecount                             0x80000001   Data           1  fingertech_exit.o(.data)
    CSI_intflag                              0x80000002   Data           1  fingertech_exit.o(.data)
    activeFrameAddr                          0x80000004   Data           4  fingertech_camera.o(.data)
    inactiveFrameAddr                        0x80000008   Data           4  fingertech_camera.o(.data)
    flag                                     0x800001b5   Data           1  fingertech_spiconfig.o(.data)
    fg_command                               0x800001b6   Data           1  fingertech_spiconfig.o(.data)
    isEnroll                                 0x800001b7   Data           1  fingertech_spiconfig.o(.data)
    g_xtalFreq                               0x800001bc   Data           4  fsl_clock.o(.data)
    g_rtcXtalFreq                            0x800001c0   Data           4  fsl_clock.o(.data)
    g_lpspiDummyData                         0x800001cc   Data           5  fsl_lpspi.o(.data)
    SystemCoreClock                          0x800001e4   Data           4  system_mimxrt1052.o(.data)
    __stdout                                 0x800001f0   Data           4  fsl_debug_console.o(.data)
    __stdin                                  0x800001f4   Data           4  fsl_debug_console.o(.data)
    camera_ptr                               0x80000224   Data          12  fingertech_camera.o(.bss)
    camera_cfg                               0x80000230   Data          32  fingertech_camera.o(.bss)
    txHandle                                 0x80000310   Data          24  fingertech_spiconfig.o(.bss)
    rxHandle                                 0x80000328   Data          24  fingertech_spiconfig.o(.bss)
    g_s_handle                               0x80000340   Data         132  fingertech_spiconfig.o(.bss)
    myslaveXfer                              0x800003c4   Data          16  fingertech_spiconfig.o(.bss)
    Image$$ARM_LIB_HEAP$$ZI$$Base            0x80000434   Number         0  anon$$obj.o ABSOLUTE
    Image$$ARM_LIB_HEAP$$ZI$$Limit           0x80000834   Number         0  anon$$obj.o ABSOLUTE
    Image$$ARM_LIB_STACK$$ZI$$Limit          0x81e00000   Number         0  anon$$obj.o ABSOLUTE
    flexspi_nor_write_enable                 0x81e00001   Thumb Code    46  fingertech_flashconfig.o(NonCacheable)
    flexspi_nor_wait_bus_busy                0x81e0002f   Thumb Code    82  fingertech_flashconfig.o(NonCacheable)
    flexspi_nor_get_vendor_id                0x81e00081   Thumb Code    62  fingertech_flashconfig.o(NonCacheable)
    flexspi_nor_flash_erase_sector           0x81e000bf   Thumb Code   100  fingertech_flashconfig.o(NonCacheable)
    flexspi_nor_flash_page_program           0x81e00123   Thumb Code    90  fingertech_flashconfig.o(NonCacheable)
    flexspi_nor_flash_read_sector            0x81e0017d   Thumb Code    60  fingertech_flashconfig.o(NonCacheable)
    FLEXSPI_CheckAndClearError               0x81e001b9   Thumb Code   104  fsl_flexspi.o(NonCacheable)
    FLEXSPI_UpdateLUT                        0x81e00221   Thumb Code    90  fsl_flexspi.o(NonCacheable)
    FLEXSPI_WriteBlocking                    0x81e0027b   Thumb Code   150  fsl_flexspi.o(NonCacheable)
    FLEXSPI_ReadBlocking                     0x81e00311   Thumb Code   214  fsl_flexspi.o(NonCacheable)
    FLEXSPI_TransferBlocking                 0x81e003e7   Thumb Code   210  fsl_flexspi.o(NonCacheable)
    FLEXSPI_TransferHandleIRQ                0x81e004b9   Thumb Code   420  fsl_flexspi.o(NonCacheable)
    FLEXSPI_DriverIRQHandler                 0x81e0065d   Thumb Code    14  fsl_flexspi.o(NonCacheable)
    Long Thumb to Thumb Veneer to __aeabi_assert 0x81e00675   Thumb Code    10  anon$$obj.o(Veneer$$Code)
    Long Thumb to Thumb Veneer to FLEXSPI_TransferAbort 0x81e00689   Thumb Code    10  anon$$obj.o(Veneer$$Code)
    slaveRxData                              0x81e00694   Data          32  fingertech_common.o(NonCacheable.init)
    slaveTxData                              0x81e006b4   Data          32  fingertech_common.o(NonCacheable.init)
    DeNoise_Rx                               0x81e006d4   Data       100352  fingertech_common.o(NonCacheable.init)
    DeNoise_Tx                               0x81e18ed4   Data       100352  fingertech_common.o(NonCacheable.init)



==============================================================================

Memory Map of the image

  Image Entry point : 0x60002401

  Load Region LR_m_rom_config (Base: 0x60000000, Size: 0x00000200, Max: 0x00001000, ABSOLUTE)

    Execution Region RW_m_config_text (Exec base: 0x60000000, Load base: 0x60000000, Size: 0x00000200, Max: 0x00001000, ABSOLUTE)

    Exec Addr    Load Addr    Size         Type   Attr      Idx    E Section Name        Object

    0x60000000   0x60000000   0x00000200   Data   RO         3906    .boot_hdr.conf      evkbimxrt1050_flexspi_nor_config.o



  Load Region LR_m_rom_ivt (Base: 0x60001000, Size: 0x00000460, Max: 0x00001000, ABSOLUTE)

    Execution Region RW_m_ivt_text (Exec base: 0x60001000, Load base: 0x60001000, Size: 0x00000460, Max: 0x00001000, ABSOLUTE)

    Exec Addr    Load Addr    Size         Type   Attr      Idx    E Section Name        Object

    0x60001000   0x60001000   0x00000020   Data   RO         3943    .boot_hdr.ivt       fsl_flexspi_nor_boot.o
    0x60001020   0x60001020   0x00000010   Data   RO         3942    .boot_hdr.boot_data  fsl_flexspi_nor_boot.o
    0x60001030   0x60001030   0x00000430   Data   RO         3927    .boot_hdr.dcd_data  evkbimxrt1050_sdram_ini_dcd.o



  Load Region LR_m_text (Base: 0x60002000, Size: 0x00038b78, Max: 0x63fffc00, ABSOLUTE, COMPRESSED[0x000080d8])

    Execution Region RW_m_code3 (Exec base: 0x20200000, Load base: 0x6000a0d8, Size: 0x00018800, Max: 0x00080000, ABSOLUTE)

    Exec Addr    Load Addr    Size         Type   Attr      Idx    E Section Name        Object

    0x20200000        -       0x00018800   Zero   RW          269    Cacheable           fingertech_common.o


    Execution Region VECTOR_ROM (Exec base: 0x60002000, Load base: 0x60002000, Size: 0x00000400, Max: 0x00000400, ABSOLUTE)

    Exec Addr    Load Addr    Size         Type   Attr      Idx    E Section Name        Object

    0x60002000   0x60002000   0x00000400   Data   RO         3833    RESET               startup_mimxrt1052.o


    Execution Region ER_m_text (Exec base: 0x60002400, Load base: 0x60002400, Size: 0x00006eac, Max: 0x03ffdc00, ABSOLUTE)

    Exec Addr    Load Addr    Size         Type   Attr      Idx    E Section Name        Object

    0x60002400   0x60002400   0x00000000   Code   RO         4256  * .ARM.Collect$$$$00000000  mc_w.l(entry.o)
    0x60002400   0x60002400   0x00000004   Code   RO         4560    .ARM.Collect$$$$00000003  mc_w.l(entry4.o)
    0x60002404   0x60002404   0x00000004   Code   RO         4563    .ARM.Collect$$$$00000004  mc_w.l(entry5.o)
    0x60002408   0x60002408   0x00000000   Code   RO         4565    .ARM.Collect$$$$00000008  mc_w.l(entry7b.o)
    0x60002408   0x60002408   0x00000000   Code   RO         4567    .ARM.Collect$$$$0000000A  mc_w.l(entry8b.o)
    0x60002408   0x60002408   0x00000008   Code   RO         4568    .ARM.Collect$$$$0000000B  mc_w.l(entry9a.o)
    0x60002410   0x60002410   0x00000000   Code   RO         4570    .ARM.Collect$$$$0000000D  mc_w.l(entry10a.o)
    0x60002410   0x60002410   0x00000000   Code   RO         4572    .ARM.Collect$$$$0000000F  mc_w.l(entry11a.o)
    0x60002410   0x60002410   0x00000004   Code   RO         4561    .ARM.Collect$$$$00002714  mc_w.l(entry4.o)
    0x60002414   0x60002414   0x000001d8   Code   RO         3834    .text               startup_mimxrt1052.o
    0x600025ec   0x600025ec   0x00000062   Code   RO         4259    .text               mc_w.l(uldiv.o)
    0x6000264e   0x6000264e   0x00000024   Code   RO         4263    .text               mc_w.l(memcpya.o)
    0x60002672   0x60002672   0x00000024   Code   RO         4265    .text               mc_w.l(memseta.o)
    0x60002696   0x60002696   0x0000000e   Code   RO         4267    .text               mc_w.l(strlen.o)
    0x600026a4   0x600026a4   0x0000001e   Code   RO         4576    .text               mc_w.l(llshl.o)
    0x600026c2   0x600026c2   0x00000020   Code   RO         4578    .text               mc_w.l(llushr.o)
    0x600026e2   0x600026e2   0x00000002   PAD
    0x600026e4   0x600026e4   0x00000024   Code   RO         4593    .text               mc_w.l(init.o)
    0x60002708   0x60002708   0x00000056   Code   RO         4607    .text               mc_w.l(__dczerorl2.o)
    0x6000275e   0x6000275e   0x0000000a   Ven    RO         4609    Veneer$$Code        anon$$obj.o
    0x60002768   0x60002768   0x0000000a   Ven    RO         4610    Veneer$$Code        anon$$obj.o
    0x60002772   0x60002772   0x0000000a   Ven    RO         4611    Veneer$$Code        anon$$obj.o
    0x6000277c   0x6000277c   0x0000000a   Ven    RO         4612    Veneer$$Code        anon$$obj.o
    0x60002786   0x60002786   0x0000000a   Ven    RO         4613    Veneer$$Code        anon$$obj.o
    0x60002790   0x60002790   0x00000566   Code   RO         3785    fingertech_flashop  fsl_flexspi.o
    0x60002cf6   0x60002cf6   0x00000002   PAD
    0x60002cf8   0x60002cf8   0x000002cc   Code   RO          129    i.BOARD_BootClockRUN  clock_config.o
    0x60002fc4   0x60002fc4   0x000001b4   Code   RO            6    i.BOARD_ConfigMPU   board.o
    0x60003178   0x60003178   0x000000f4   Code   RO          188    i.BOARD_InitPins    pin_mux.o
    0x6000326c   0x6000326c   0x00000024   Code   RO          610    i.BOARD_PullCameraPowerDownPin  fingertech_camera.o
    0x60003290   0x60003290   0x0000006c   Code   RO          885    i.CLOCK_ControlGate  fsl_dmamux.o
    0x600032fc   0x600032fc   0x0000006c   Code   RO          931    i.CLOCK_ControlGate  fsl_edma.o
    0x60003368   0x60003368   0x0000006c   Code   RO         2516    i.CLOCK_ControlGate  fsl_lpspi.o
    0x600033d4   0x600033d4   0x0000006c   Code   RO         3064    i.CLOCK_ControlGate  fsl_lpi2c.o
    0x60003440   0x60003440   0x0000006c   Code   RO         3524    i.CLOCK_ControlGate  fsl_csi.o
    0x600034ac   0x600034ac   0x00000074   Code   RO          189    i.CLOCK_EnableClock  pin_mux.o
    0x60003520   0x60003520   0x00000058   Code   RO          612    i.CLOCK_EnableClock  fingertech_camera.o
    0x60003578   0x60003578   0x00000058   Code   RO         1900    i.CLOCK_EnableClock  fingertech_i2c_api.o
    0x600035d0   0x600035d0   0x0000000e   Code   RO         2517    i.CLOCK_EnableClock  fsl_lpspi.o
    0x600035de   0x600035de   0x0000000e   Code   RO         3066    i.CLOCK_EnableClock  fsl_lpi2c.o
    0x600035ec   0x600035ec   0x00000074   Code   RO         3473    i.CLOCK_EnableClock  fsl_gpio.o
    0x60003660   0x60003660   0x00000074   Code   RO         3786    i.CLOCK_EnableClock  fsl_flexspi.o
    0x600036d4   0x600036d4   0x00000174   Code   RO         2144    i.CLOCK_GetFreq     fsl_clock.o
    0x60003848   0x60003848   0x00000020   Code   RO         2145    i.CLOCK_GetOscFreq  fsl_clock.o
    0x60003868   0x60003868   0x000000c8   Code   RO         2146    i.CLOCK_GetPeriphClkFreq  fsl_clock.o
    0x60003930   0x60003930   0x0000022c   Code   RO         2147    i.CLOCK_GetPllFreq  fsl_clock.o
    0x60003b5c   0x60003b5c   0x0000006c   Code   RO         2148    i.CLOCK_GetSysPfdFreq  fsl_clock.o
    0x60003bc8   0x60003bc8   0x0000006c   Code   RO         2149    i.CLOCK_GetUsb1PfdFreq  fsl_clock.o
    0x60003c34   0x60003c34   0x00000058   Code   RO         2150    i.CLOCK_InitArmPll  fsl_clock.o
    0x60003c8c   0x60003c8c   0x000000a8   Code   RO          131    i.CLOCK_SetDiv      clock_config.o
    0x60003d34   0x60003d34   0x00000070   Code   RO          613    i.CLOCK_SetDiv      fingertech_camera.o
    0x60003da4   0x60003da4   0x00000070   Code   RO         1705    i.CLOCK_SetDiv      fingertech_spiconfig.o
    0x60003e14   0x60003e14   0x00000070   Code   RO         1901    i.CLOCK_SetDiv      fingertech_i2c_api.o
    0x60003e84   0x60003e84   0x000000a8   Code   RO          132    i.CLOCK_SetMux      clock_config.o
    0x60003f2c   0x60003f2c   0x000000a8   Code   RO          614    i.CLOCK_SetMux      fingertech_camera.o
    0x60003fd4   0x60003fd4   0x000000a8   Code   RO         1706    i.CLOCK_SetMux      fingertech_spiconfig.o
    0x6000407c   0x6000407c   0x000000a8   Code   RO         1902    i.CLOCK_SetMux      fingertech_i2c_api.o
    0x60004124   0x60004124   0x00000038   Code   RO         3525    i.CSI_ClearFifo     fsl_csi.o
    0x6000415c   0x6000415c   0x0000002c   Code   RO         3529    i.CSI_EnableFifoDmaRequest  fsl_csi.o
    0x60004188   0x60004188   0x00000020   Code   RO         3530    i.CSI_EnableInterrupts  fsl_csi.o
    0x600041a8   0x600041a8   0x0000005c   Code   RO         3531    i.CSI_GetDefaultConfig  fsl_csi.o
    0x60004204   0x60004204   0x00000074   Code   RO         3532    i.CSI_GetInstance   fsl_csi.o
    0x60004278   0x60004278   0x00000030   Code   RO          518    i.CSI_IRQHandler    fingertech_exit.o
    0x600042a8   0x600042a8   0x00000130   Code   RO         3533    i.CSI_Init          fsl_csi.o
    0x600043d8   0x600043d8   0x0000002a   Code   RO         3534    i.CSI_ReflashFifoDma  fsl_csi.o
    0x60004402   0x60004402   0x00000002   PAD
    0x60004404   0x60004404   0x00000054   Code   RO         3535    i.CSI_Reset         fsl_csi.o
    0x60004458   0x60004458   0x0000000a   Code   RO         3536    i.CSI_SetRxBufferAddr  fsl_csi.o
    0x60004462   0x60004462   0x00000018   Code   RO         3538    i.CSI_Stop          fsl_csi.o
    0x6000447a   0x6000447a   0x00000002   PAD
    0x6000447c   0x6000447c   0x00000058   Code   RO          242    i.Cdfinger_AttributeTransfer  fingertech_common.o
    0x600044d4   0x600044d4   0x00000060   Code   RO          243    i.Cdfinger_ChangeExposureTime  fingertech_common.o
    0x60004534   0x60004534   0x00000058   Code   RO          244    i.Cdfinger_EnrollPrepareTransfer  fingertech_common.o
    0x6000458c   0x6000458c   0x000000bc   Code   RO          245    i.Cdfinger_GetImage  fingertech_common.o
    0x60004648   0x60004648   0x000000c0   Code   RO          246    i.Cdfinger_MoveImage  fingertech_common.o
    0x60004708   0x60004708   0x00000060   Code   RO          247    i.Cdfinger_RecPrepareTransfer  fingertech_common.o
    0x60004768   0x60004768   0x0000003c   Code   RO          248    i.Cdfinger_RetryRecPrepareTransfer  fingertech_common.o
    0x600047a4   0x600047a4   0x000000b0   Code   RO          249    i.Cdfinger_SetCoordinates  fingertech_common.o
    0x60004854   0x60004854   0x000000a8   Code   RO         4092    i.ConvertRadixNumToString  fsl_str.o
    0x600048fc   0x600048fc   0x00000038   Code   RO          948    i.DMA0_DMA16_DriverIRQHandler  fsl_edma.o
    0x60004934   0x60004934   0x00000038   Code   RO          950    i.DMA10_DMA26_DriverIRQHandler  fsl_edma.o
    0x6000496c   0x6000496c   0x00000038   Code   RO          952    i.DMA11_DMA27_DriverIRQHandler  fsl_edma.o
    0x600049a4   0x600049a4   0x00000038   Code   RO          954    i.DMA12_DMA28_DriverIRQHandler  fsl_edma.o
    0x600049dc   0x600049dc   0x00000038   Code   RO          956    i.DMA13_DMA29_DriverIRQHandler  fsl_edma.o
    0x60004a14   0x60004a14   0x00000038   Code   RO          958    i.DMA14_DMA30_DriverIRQHandler  fsl_edma.o
    0x60004a4c   0x60004a4c   0x00000038   Code   RO          960    i.DMA15_DMA31_DriverIRQHandler  fsl_edma.o
    0x60004a84   0x60004a84   0x00000038   Code   RO          966    i.DMA1_DMA17_DriverIRQHandler  fsl_edma.o
    0x60004abc   0x60004abc   0x00000038   Code   RO          978    i.DMA2_DMA18_DriverIRQHandler  fsl_edma.o
    0x60004af4   0x60004af4   0x00000038   Code   RO          982    i.DMA3_DMA19_DriverIRQHandler  fsl_edma.o
    0x60004b2c   0x60004b2c   0x00000038   Code   RO          984    i.DMA4_DMA20_DriverIRQHandler  fsl_edma.o
    0x60004b64   0x60004b64   0x00000038   Code   RO          986    i.DMA5_DMA21_DriverIRQHandler  fsl_edma.o
    0x60004b9c   0x60004b9c   0x00000038   Code   RO          988    i.DMA6_DMA22_DriverIRQHandler  fsl_edma.o
    0x60004bd4   0x60004bd4   0x00000038   Code   RO          990    i.DMA7_DMA23_DriverIRQHandler  fsl_edma.o
    0x60004c0c   0x60004c0c   0x00000038   Code   RO          992    i.DMA8_DMA24_DriverIRQHandler  fsl_edma.o
    0x60004c44   0x60004c44   0x00000038   Code   RO          994    i.DMA9_DMA25_DriverIRQHandler  fsl_edma.o
    0x60004c7c   0x60004c7c   0x00000070   Code   RO         1707    i.DMAMUX_EnableChannel  fingertech_spiconfig.o
    0x60004cec   0x60004cec   0x00000078   Code   RO          887    i.DMAMUX_GetInstance  fsl_dmamux.o
    0x60004d64   0x60004d64   0x00000020   Code   RO          888    i.DMAMUX_Init       fsl_dmamux.o
    0x60004d84   0x60004d84   0x00000074   Code   RO         1708    i.DMAMUX_SetSource  fingertech_spiconfig.o
    0x60004df8   0x60004df8   0x00000030   Code   RO         1709    i.DMA_transfer_data  fingertech_spiconfig.o
    0x60004e28   0x60004e28   0x00000040   Code   RO         4176    i.DbgConsole_Printf  fsl_debug_console.o
    0x60004e68   0x60004e68   0x0000003e   Code   RO         4178    i.DbgConsole_RelocateLog  fsl_debug_console.o
    0x60004ea6   0x60004ea6   0x0000000c   Code   RO          996    i.DisableGlobalIRQ  fsl_edma.o
    0x60004eb2   0x60004eb2   0x0000000c   Code   RO         1968    i.DisableGlobalIRQ  fingertech_flashconfig.o
    0x60004ebe   0x60004ebe   0x00000002   PAD
    0x60004ec0   0x60004ec0   0x000000f4   Code   RO          615    i.DistinguishCamera  fingertech_camera.o
    0x60004fb4   0x60004fb4   0x00000080   Code   RO         1710    i.EDMA_Callback     fingertech_spiconfig.o
    0x60005034   0x60005034   0x00000108   Code   RO          999    i.EDMA_CreateHandle  fsl_edma.o
    0x6000513c   0x6000513c   0x000000ac   Code   RO         1002    i.EDMA_EnableChannelInterrupts  fsl_edma.o
    0x600051e8   0x600051e8   0x0000008c   Code   RO         1003    i.EDMA_GetChannelStatusFlags  fsl_edma.o
    0x60005274   0x60005274   0x0000004c   Code   RO         1004    i.EDMA_GetDefaultConfig  fsl_edma.o
    0x600052c0   0x600052c0   0x00000070   Code   RO         1005    i.EDMA_GetInstance  fsl_edma.o
    0x60005330   0x60005330   0x000000f0   Code   RO         1007    i.EDMA_HandleIRQ    fsl_edma.o
    0x60005420   0x60005420   0x00000090   Code   RO         1008    i.EDMA_Init         fsl_edma.o
    0x600054b0   0x600054b0   0x00000148   Code   RO         1556    i.EDMA_LpspiSlaveCallback  fsl_lpspi_edma.o
    0x600055f8   0x600055f8   0x00000068   Code   RO         1012    i.EDMA_ResetChannel  fsl_edma.o
    0x60005660   0x60005660   0x00000048   Code   RO         1014    i.EDMA_SetCallback  fsl_edma.o
    0x600056a8   0x600056a8   0x000000c8   Code   RO         1018    i.EDMA_SetTransferConfig  fsl_edma.o
    0x60005770   0x60005770   0x0000009c   Code   RO         1019    i.EDMA_StartTransfer  fsl_edma.o
    0x6000580c   0x6000580c   0x0000008c   Code   RO         1024    i.EDMA_TcdReset     fsl_edma.o
    0x60005898   0x60005898   0x0000010c   Code   RO         1028    i.EDMA_TcdSetTransferConfig  fsl_edma.o
    0x600059a4   0x600059a4   0x0000000a   Code   RO         1029    i.EnableGlobalIRQ   fsl_edma.o
    0x600059ae   0x600059ae   0x0000000a   Code   RO         1969    i.EnableGlobalIRQ   fingertech_flashconfig.o
    0x600059b8   0x600059b8   0x0000007c   Code   RO         3787    i.FLEXSPI_ConfigureDll  fsl_flexspi.o
    0x60005a34   0x60005a34   0x00000080   Code   RO         3788    i.FLEXSPI_GetInstance  fsl_flexspi.o
    0x60005ab4   0x60005ab4   0x00000036   Code   RO          250    i.FingerTech_BspInit  fingertech_common.o
    0x60005aea   0x60005aea   0x00000002   PAD
    0x60005aec   0x60005aec   0x00000028   Code   RO          252    i.FingerTech_Delayms  fingertech_common.o
    0x60005b14   0x60005b14   0x000000b4   Code   RO         1970    i.FingerTech_FlashConfig  fingertech_flashconfig.o
    0x60005bc8   0x60005bc8   0x0000002c   Code   RO          616    i.FingerTech_GetImg  fingertech_camera.o
    0x60005bf4   0x60005bf4   0x00000050   Code   RO          257    i.FingerTech_LedInit  fingertech_common.o
    0x60005c44   0x60005c44   0x00000028   Code   RO          519    i.FingerTech_NVIC_SetGrouping  fingertech_exit.o
    0x60005c6c   0x60005c6c   0x00000014   Code   RO         1711    i.FingerTech_change_exposureGain  fingertech_spiconfig.o
    0x60005c80   0x60005c80   0x00000050   Code   RO         1712    i.FingerTech_change_exposureTime  fingertech_spiconfig.o
    0x60005cd0   0x60005cd0   0x00000050   Code   RO         1713    i.FingerTech_move_image  fingertech_spiconfig.o
    0x60005d20   0x60005d20   0x000000a4   Code   RO          617    i.Fingertech_CSI_Init  fingertech_camera.o
    0x60005dc4   0x60005dc4   0x00000110   Code   RO         1714    i.Fingertech_SpiConfig  fingertech_spiconfig.o
    0x60005ed4   0x60005ed4   0x00000060   Code   RO          618    i.Fingertech_cameraconfig  fingertech_camera.o
    0x60005f34   0x60005f34   0x000001e4   Code   RO          619    i.Fingertech_cameragpioinit  fingertech_camera.o
    0x60006118   0x60006118   0x00000034   Code   RO          620    i.Fingertech_camerainitresource  fingertech_camera.o
    0x6000614c   0x6000614c   0x00000078   Code   RO         1903    i.Fingertech_sp0828gpioinit  fingertech_i2c_api.o
    0x600061c4   0x600061c4   0x0000004c   Code   RO         1904    i.Fingertech_sp0828iicconfig  fingertech_i2c_api.o
    0x60006210   0x60006210   0x00000034   Code   RO         1905    i.Fingertech_sp0828iicreaddata  fingertech_i2c_api.o
    0x60006244   0x60006244   0x00000040   Code   RO         1906    i.Fingertech_sp0828iicwritedata  fingertech_i2c_api.o
    0x60006284   0x60006284   0x00000048   Code   RO         1813    i.FusionImg         fingertech_algorithm.o
    0x600062cc   0x600062cc   0x00000074   Code   RO         3474    i.GPIO_GetInstance  fsl_gpio.o
    0x60006340   0x60006340   0x00000060   Code   RO         3475    i.GPIO_PinInit      fsl_gpio.o
    0x600063a0   0x600063a0   0x0000008a   Code   RO         3476    i.GPIO_PinSetInterruptConfig  fsl_gpio.o
    0x6000642a   0x6000642a   0x00000002   PAD
    0x6000642c   0x6000642c   0x0000005c   Code   RO         3477    i.GPIO_PinWrite     fsl_gpio.o
    0x60006488   0x60006488   0x0000001c   Code   RO         1030    i.Get_StartInstance  fsl_edma.o
    0x600064a4   0x600064a4   0x00000004   Code   RO          521    i.HardFault_Handler  fingertech_exit.o
    0x600064a8   0x600064a8   0x0000000c   Code   RO          190    i.IOMUXC_SetPinConfig  pin_mux.o
    0x600064b4   0x600064b4   0x0000000c   Code   RO          260    i.IOMUXC_SetPinConfig  fingertech_common.o
    0x600064c0   0x600064c0   0x0000000c   Code   RO         1907    i.IOMUXC_SetPinConfig  fingertech_i2c_api.o
    0x600064cc   0x600064cc   0x0000001a   Code   RO          191    i.IOMUXC_SetPinMux  pin_mux.o
    0x600064e6   0x600064e6   0x0000001a   Code   RO          261    i.IOMUXC_SetPinMux  fingertech_common.o
    0x60006500   0x60006500   0x0000001a   Code   RO          621    i.IOMUXC_SetPinMux  fingertech_camera.o
    0x6000651a   0x6000651a   0x0000001a   Code   RO         1908    i.IOMUXC_SetPinMux  fingertech_i2c_api.o
    0x60006534   0x60006534   0x00000044   Code   RO         3970    i.IO_Transfer       fsl_io.o
    0x60006578   0x60006578   0x0000001c   Code   RO          262    i.L1CACHE_CleanDCacheByRange  fingertech_common.o
    0x60006594   0x60006594   0x00000022   Code   RO         4023    i.LOG_Pop           fsl_log.o
    0x600065b6   0x600065b6   0x00000002   PAD
    0x600065b8   0x600065b8   0x00000050   Code   RO         4024    i.LOG_Push          fsl_log.o
    0x60006608   0x60006608   0x00000010   Code   RO         3068    i.LPI2C1_DriverIRQHandler  fsl_lpi2c.o
    0x60006618   0x60006618   0x00000010   Code   RO         3069    i.LPI2C2_DriverIRQHandler  fsl_lpi2c.o
    0x60006628   0x60006628   0x00000010   Code   RO         3070    i.LPI2C3_DriverIRQHandler  fsl_lpi2c.o
    0x60006638   0x60006638   0x00000010   Code   RO         3071    i.LPI2C4_DriverIRQHandler  fsl_lpi2c.o
    0x60006648   0x60006648   0x00000022   Code   RO         3072    i.LPI2C_CheckForBusyBus  fsl_lpi2c.o
    0x6000666a   0x6000666a   0x00000002   PAD
    0x6000666c   0x6000666c   0x00000054   Code   RO         3073    i.LPI2C_CommonIRQHandler  fsl_lpi2c.o
    0x600066c0   0x600066c0   0x000000ac   Code   RO         3074    i.LPI2C_GetCyclesForWidth  fsl_lpi2c.o
    0x6000676c   0x6000676c   0x00000054   Code   RO         3075    i.LPI2C_GetInstance  fsl_lpi2c.o
    0x600067c0   0x600067c0   0x0000008c   Code   RO         3077    i.LPI2C_MasterCheckAndClearError  fsl_lpi2c.o
    0x6000684c   0x6000684c   0x00000004   Code   RO         3078    i.LPI2C_MasterClearStatusFlags  fsl_lpi2c.o
    0x60006850   0x60006850   0x0000000a   Code   RO         3082    i.LPI2C_MasterEnable  fsl_lpi2c.o
    0x6000685a   0x6000685a   0x00000002   PAD
    0x6000685c   0x6000685c   0x00000030   Code   RO         3084    i.LPI2C_MasterGetDefaultConfig  fsl_lpi2c.o
    0x6000688c   0x6000688c   0x00000016   Code   RO         3085    i.LPI2C_MasterGetFifoCounts  fsl_lpi2c.o
    0x600068a2   0x600068a2   0x00000006   Code   RO         3086    i.LPI2C_MasterGetStatusFlags  fsl_lpi2c.o
    0x600068a8   0x600068a8   0x00000138   Code   RO         3087    i.LPI2C_MasterInit  fsl_lpi2c.o
    0x600069e0   0x600069e0   0x000000a0   Code   RO         3088    i.LPI2C_MasterReceive  fsl_lpi2c.o
    0x60006a80   0x60006a80   0x0000000a   Code   RO         3089    i.LPI2C_MasterReset  fsl_lpi2c.o
    0x60006a8a   0x60006a8a   0x00000002   PAD
    0x60006a8c   0x60006a8c   0x00000070   Code   RO         3090    i.LPI2C_MasterSend  fsl_lpi2c.o
    0x60006afc   0x60006afc   0x00000124   Code   RO         3091    i.LPI2C_MasterSetBaudRate  fsl_lpi2c.o
    0x60006c20   0x60006c20   0x0000004a   Code   RO         3093    i.LPI2C_MasterStop  fsl_lpi2c.o
    0x60006c6a   0x60006c6a   0x00000002   PAD
    0x60006c6c   0x60006c6c   0x000001a0   Code   RO         3095    i.LPI2C_MasterTransferBlocking  fsl_lpi2c.o
    0x60006e0c   0x60006e0c   0x0000003a   Code   RO         3100    i.LPI2C_MasterWaitForTxReady  fsl_lpi2c.o
    0x60006e46   0x60006e46   0x00000002   PAD
    0x60006e48   0x60006e48   0x00000060   Code   RO         2519    i.LPSPI1_DriverIRQHandler  fsl_lpspi.o
    0x60006ea8   0x60006ea8   0x00000060   Code   RO         2520    i.LPSPI2_DriverIRQHandler  fsl_lpspi.o
    0x60006f08   0x60006f08   0x00000060   Code   RO         2521    i.LPSPI3_DriverIRQHandler  fsl_lpspi.o
    0x60006f68   0x60006f68   0x00000060   Code   RO         2522    i.LPSPI4_DriverIRQHandler  fsl_lpspi.o
    0x60006fc8   0x60006fc8   0x00000090   Code   RO         2523    i.LPSPI_CheckTransferArgument  fsl_lpspi.o
    0x60007058   0x60007058   0x00000004   Code   RO         1557    i.LPSPI_ClearStatusFlags  fsl_lpspi_edma.o
    0x6000705c   0x6000705c   0x00000030   Code   RO         2526    i.LPSPI_CommonIRQHandler  fsl_lpspi.o
    0x6000708c   0x6000708c   0x00000008   Code   RO         1558    i.LPSPI_DisableDMA  fsl_lpspi_edma.o
    0x60007094   0x60007094   0x00000008   Code   RO         1559    i.LPSPI_DisableInterrupts  fsl_lpspi_edma.o
    0x6000709c   0x6000709c   0x00000016   Code   RO          263    i.LPSPI_Enable      fingertech_common.o
    0x600070b2   0x600070b2   0x00000016   Code   RO         1560    i.LPSPI_Enable      fsl_lpspi_edma.o
    0x600070c8   0x600070c8   0x00000016   Code   RO         1715    i.LPSPI_Enable      fingertech_spiconfig.o
    0x600070de   0x600070de   0x00000016   Code   RO         2529    i.LPSPI_Enable      fsl_lpspi.o
    0x600070f4   0x600070f4   0x00000008   Code   RO          264    i.LPSPI_EnableDMA   fingertech_common.o
    0x600070fc   0x600070fc   0x00000008   Code   RO         1716    i.LPSPI_EnableDMA   fingertech_spiconfig.o
    0x60007104   0x60007104   0x00000010   Code   RO         1561    i.LPSPI_FlushFifo   fsl_lpspi_edma.o
    0x60007114   0x60007114   0x0000007c   Code   RO         2532    i.LPSPI_GetInstance  fsl_lpspi.o
    0x60007190   0x60007190   0x0000000a   Code   RO         1562    i.LPSPI_GetRxFifoCount  fsl_lpspi_edma.o
    0x6000719a   0x6000719a   0x0000000c   Code   RO         1563    i.LPSPI_GetRxFifoSize  fsl_lpspi_edma.o
    0x600071a6   0x600071a6   0x00000016   Code   RO         2551    i.LPSPI_Reset       fsl_lpspi.o
    0x600071bc   0x600071bc   0x000000ac   Code   RO         1568    i.LPSPI_SeparateEdmaReadData  fsl_lpspi_edma.o
    0x60007268   0x60007268   0x00000018   Code   RO         2553    i.LPSPI_SetDummyData  fsl_lpspi.o
    0x60007280   0x60007280   0x00000014   Code   RO         1569    i.LPSPI_SetFifoWatermarks  fsl_lpspi_edma.o
    0x60007294   0x60007294   0x00000014   Code   RO         2554    i.LPSPI_SetFifoWatermarks  fsl_lpspi.o
    0x600072a8   0x600072a8   0x0000000a   Code   RO         2555    i.LPSPI_SetMasterSlaveMode  fsl_lpspi.o
    0x600072b2   0x600072b2   0x0000001e   Code   RO         2556    i.LPSPI_SetOnePcsPolarity  fsl_lpspi.o
    0x600072d0   0x600072d0   0x000000d8   Code   RO         2558    i.LPSPI_SlaveInit   fsl_lpspi.o
    0x600073a8   0x600073a8   0x000000d4   Code   RO         1571    i.LPSPI_SlaveTransferCreateHandleEDMA  fsl_lpspi_edma.o
    0x6000747c   0x6000747c   0x00000478   Code   RO         1572    i.LPSPI_SlaveTransferEDMA  fsl_lpspi_edma.o
    0x600078f4   0x600078f4   0x0000001c   Code   RO         2828    i.LPUART1_DriverIRQHandler  fsl_lpuart.o
    0x60007910   0x60007910   0x0000001c   Code   RO         2829    i.LPUART2_DriverIRQHandler  fsl_lpuart.o
    0x6000792c   0x6000792c   0x0000001c   Code   RO         2830    i.LPUART3_DriverIRQHandler  fsl_lpuart.o
    0x60007948   0x60007948   0x0000001c   Code   RO         2831    i.LPUART4_DriverIRQHandler  fsl_lpuart.o
    0x60007964   0x60007964   0x0000001c   Code   RO         2832    i.LPUART5_DriverIRQHandler  fsl_lpuart.o
    0x60007980   0x60007980   0x0000001c   Code   RO         2833    i.LPUART6_DriverIRQHandler  fsl_lpuart.o
    0x6000799c   0x6000799c   0x0000001c   Code   RO         2834    i.LPUART7_DriverIRQHandler  fsl_lpuart.o
    0x600079b8   0x600079b8   0x0000001c   Code   RO         2835    i.LPUART8_DriverIRQHandler  fsl_lpuart.o
    0x600079d4   0x600079d4   0x00000058   Code   RO         2836    i.LPUART_ClearStatusFlags  fsl_lpuart.o
    0x60007a2c   0x60007a2c   0x00000010   Code   RO         2843    i.LPUART_GetStatusFlags  fsl_lpuart.o
    0x60007a3c   0x60007a3c   0x000000f4   Code   RO         2845    i.LPUART_ReadBlocking  fsl_lpuart.o
    0x60007b30   0x60007b30   0x00000060   Code   RO         2861    i.LPUART_WriteBlocking  fsl_lpuart.o
    0x60007b90   0x60007b90   0x0000002c   Code   RO          622    i.M1_V1_DelayMs     fingertech_camera.o
    0x60007bbc   0x60007bbc   0x000000f4   Code   RO          623    i.M1_V1_Init        fingertech_camera.o
    0x60007cb0   0x60007cb0   0x00000030   Code   RO          624    i.M1_V1_Start       fingertech_camera.o
    0x60007ce0   0x60007ce0   0x00000002   Code   RO          625    i.M1_V1_Stop        fingertech_camera.o
    0x60007ce2   0x60007ce2   0x0000003c   Code   RO          626    i.M1_V1__full_frame_size  fingertech_camera.o
    0x60007d1e   0x60007d1e   0x00000080   Code   RO          627    i.M1_V1__out_frame_size  fingertech_camera.o
    0x60007d9e   0x60007d9e   0x0000002c   Code   RO          628    i.M1_V1_config_mclk_pclk  fingertech_camera.o
    0x60007dca   0x60007dca   0x00000002   PAD
    0x60007dcc   0x60007dcc   0x00000028   Code   RO          629    i.M1_V1_dvp_init    fingertech_camera.o
    0x60007df4   0x60007df4   0x00000060   Code   RO          630    i.M1_V1_readid      fingertech_camera.o
    0x60007e54   0x60007e54   0x0000001c   Code   RO          631    i.M1_V1_reset       fingertech_camera.o
    0x60007e70   0x60007e70   0x0000012c   Code   RO         2057    i.PIS1701_Init      pis1701.o
    0x60007f9c   0x60007f9c   0x0000002c   Code   RO         2058    i.PIS1701_Start     pis1701.o
    0x60007fc8   0x60007fc8   0x0000000a   Code   RO         2059    i.PIS1701_Stop      pis1701.o
    0x60007fd2   0x60007fd2   0x00000030   Code   RO         2060    i.PIS1701__full_frame_size  pis1701.o
    0x60008002   0x60008002   0x00000002   PAD
    0x60008004   0x60008004   0x00000084   Code   RO         2061    i.PIS1701_change_exposureTime  pis1701.o
    0x60008088   0x60008088   0x0000006c   Code   RO         2063    i.PIS1701_out_frame_size  pis1701.o
    0x600080f4   0x600080f4   0x0000004c   Code   RO          265    i.SCB_CleanDCache_by_Addr  fingertech_common.o
    0x60008140   0x60008140   0x000000a0   Code   RO           10    i.SCB_DisableDCache  board.o
    0x600081e0   0x600081e0   0x0000009c   Code   RO           11    i.SCB_EnableDCache  board.o
    0x6000827c   0x6000827c   0x0000009c   Code   RO         3841    i.SCB_EnableDCache  system_mimxrt1052.o
    0x60008318   0x60008318   0x0000007c   Code   RO           12    i.SCB_EnableICache  board.o
    0x60008394   0x60008394   0x0000007c   Code   RO         3842    i.SCB_EnableICache  system_mimxrt1052.o
    0x60008410   0x60008410   0x0000004c   Code   RO          266    i.SCB_InvalidateDCache_by_Addr  fingertech_common.o
    0x6000845c   0x6000845c   0x0000022e   Code   RO         4094    i.StrFormatPrintf   fsl_str.o
    0x6000868a   0x6000868a   0x00000002   PAD
    0x6000868c   0x6000868c   0x000000cc   Code   RO         3844    i.SystemInit        system_mimxrt1052.o
    0x60008758   0x60008758   0x00000002   Code   RO         3845    i.SystemInitHook    system_mimxrt1052.o
    0x6000875a   0x6000875a   0x00000002   PAD
    0x6000875c   0x6000875c   0x00000020   Code   RO         4478    i.__0printf$8       mc_w.l(printf8.o)
    0x6000877c   0x6000877c   0x00000044   Code   RO         4148    i.__aeabi_assert    fsl_assert.o
    0x600087c0   0x600087c0   0x0000000e   Code   RO         4601    i.__scatterload_copy  mc_w.l(handlers.o)
    0x600087ce   0x600087ce   0x00000002   Code   RO         4602    i.__scatterload_null  mc_w.l(handlers.o)
    0x600087d0   0x600087d0   0x0000000e   Code   RO         4603    i.__scatterload_zeroinit  mc_w.l(handlers.o)
    0x600087de   0x600087de   0x00000002   PAD
    0x600087e0   0x600087e0   0x00000410   Code   RO         4485    i._printf_core      mc_w.l(printf8.o)
    0x60008bf0   0x60008bf0   0x00000024   Code   RO         4486    i._printf_post_padding  mc_w.l(printf8.o)
    0x60008c14   0x60008c14   0x0000002e   Code   RO         4487    i._printf_pre_padding  mc_w.l(printf8.o)
    0x60008c42   0x60008c42   0x00000002   PAD
    0x60008c44   0x60008c44   0x00000160   Code   RO         1816    i.coordinate        fingertech_algorithm.o
    0x60008da4   0x60008da4   0x0000000e   Code   RO         4181    i.fputc             fsl_debug_console.o
    0x60008db2   0x60008db2   0x00000002   PAD
    0x60008db4   0x60008db4   0x00000048   Code   RO         1817    i.im_mean           fingertech_algorithm.o
    0x60008dfc   0x60008dfc   0x0000006c   Code   RO         1868    i.main              main.o
    0x60008e68   0x60008e68   0x00000184   Code   RO         1818    i.one_Extrect_three  fingertech_algorithm.o
    0x60008fec   0x60008fec   0x00000044   Code   RO         1971    i.update_camera_cfg  fingertech_flashconfig.o
    0x60009030   0x60009030   0x0000001a   Data   RO          133    .constdata          clock_config.o
    0x6000904a   0x6000904a   0x00000002   PAD
    0x6000904c   0x6000904c   0x00000003   Data   RO          267    .constdata          fingertech_common.o
    0x6000904f   0x6000904f   0x00000001   PAD
    0x60009050   0x60009050   0x0000001c   Data   RO          633    .constdata          fingertech_camera.o
    0x6000906c   0x6000906c   0x00000006   Data   RO          889    .constdata          fsl_dmamux.o
    0x60009072   0x60009072   0x00000002   PAD
    0x60009074   0x60009074   0x00000046   Data   RO         1032    .constdata          fsl_edma.o
    0x600090ba   0x600090ba   0x00000002   PAD
    0x600090bc   0x600090bc   0x00000003   Data   RO         1718    .constdata          fingertech_spiconfig.o
    0x600090bf   0x600090bf   0x00000001   PAD
    0x600090c0   0x600090c0   0x00000100   Data   RO         1972    .constdata          fingertech_flashconfig.o
    0x600091c0   0x600091c0   0x00000010   Data   RO         2162    .constdata          fsl_clock.o
    0x600091d0   0x600091d0   0x00000030   Data   RO         2568    .constdata          fsl_lpspi.o
    0x60009200   0x60009200   0x00000028   Data   RO         3118    .constdata          fsl_lpi2c.o
    0x60009228   0x60009228   0x00000024   Data   RO         3478    .constdata          fsl_gpio.o
    0x6000924c   0x6000924c   0x00000008   Data   RO         3549    .constdata          fsl_csi.o
    0x60009254   0x60009254   0x00000008   Data   RO         3789    .constdata          fsl_flexspi.o
    0x6000925c   0x6000925c   0x00000050   Data   RO         4599    Region$$Table       anon$$obj.o


    Execution Region RW_m_data (Exec base: 0x80000000, Load base: 0x600092ac, Size: 0x00000434, Max: 0x01dff800, ABSOLUTE, COMPRESSED[0x00000170])

    Exec Addr    Load Addr    Size         Type   Attr      Idx    E Section Name        Object

    0x80000000   COMPRESSED   0x00000001   Data   RW          268    .data               fingertech_common.o
    0x80000001   COMPRESSED   0x00000002   Data   RW          522    .data               fingertech_exit.o
    0x80000003   COMPRESSED   0x00000001   PAD
    0x80000004   COMPRESSED   0x000001b0   Data   RW          634    .data               fingertech_camera.o
    0x800001b4   COMPRESSED   0x00000001   Data   RW         1034    .data               fsl_edma.o
    0x800001b5   COMPRESSED   0x00000003   Data   RW         1719    .data               fingertech_spiconfig.o
    0x800001b8   COMPRESSED   0x00000001   Data   RW         1819    .data               fingertech_algorithm.o
    0x800001b9   COMPRESSED   0x00000003   PAD
    0x800001bc   COMPRESSED   0x00000008   Data   RW         2163    .data               fsl_clock.o
    0x800001c4   COMPRESSED   0x0000000d   Data   RW         2569    .data               fsl_lpspi.o
    0x800001d1   COMPRESSED   0x00000003   PAD
    0x800001d4   COMPRESSED   0x00000004   Data   RW         2865    .data               fsl_lpuart.o
    0x800001d8   COMPRESSED   0x00000008   Data   RW         3119    .data               fsl_lpi2c.o
    0x800001e0   COMPRESSED   0x00000004   Data   RW         3790    .data               fsl_flexspi.o
    0x800001e4   COMPRESSED   0x00000004   Data   RW         3846    .data               system_mimxrt1052.o
    0x800001e8   COMPRESSED   0x00000008   Data   RW         3972    .data               fsl_io.o
    0x800001f0   COMPRESSED   0x00000008   Data   RW         4182    .data               fsl_debug_console.o
    0x800001f8        -       0x00000058   Zero   RW          632    .bss                fingertech_camera.o
    0x80000250        -       0x00000080   Zero   RW         1031    .bss                fsl_edma.o
    0x800002d0        -       0x00000040   Zero   RW         1574    .bss                fsl_lpspi_edma.o
    0x80000310        -       0x000000c4   Zero   RW         1717    .bss                fingertech_spiconfig.o
    0x800003d4        -       0x00000014   Zero   RW         2567    .bss                fsl_lpspi.o
    0x800003e8        -       0x00000024   Zero   RW         2863    .bss                fsl_lpuart.o
    0x8000040c        -       0x00000028   Zero   RW         3117    .bss                fsl_lpi2c.o


    Execution Region ARM_LIB_HEAP (Exec base: 0x80000434, Load base: 0x6000941c, Size: 0x00000400, Max: 0x00000400, ABSOLUTE)

    Exec Addr    Load Addr    Size         Type   Attr      Idx    E Section Name        Object

    0x80000434        -       0x00000400   Zero   RW            1    ARM_LIB_HEAP.bss    anon$$obj.o


    Execution Region ARM_LIB_STACK (Exec base: 0x81dffc00, Load base: 0x6000941c, Size: 0x00000400, Max: 0x00000400, ABSOLUTE)

    Exec Addr    Load Addr    Size         Type   Attr      Idx    E Section Name        Object

    0x81dffc00        -       0x00000400   Zero   RW            2    ARM_LIB_STACK.bss   anon$$obj.o


    Execution Region RW_m_ncache (Exec base: 0x81e00000, Load base: 0x6000941c, Size: 0x000316d4, Max: 0x00400000, ABSOLUTE, COMPRESSED[0x00000628])

    Exec Addr    Load Addr    Size         Type   Attr      Idx    E Section Name        Object

    0x81e00000   0x6000941c   0x000001b8   Code   RO         1967    NonCacheable        fingertech_flashconfig.o
    0x81e001b8   0x600095d4   0x000004bc   Code   RO         3784    NonCacheable        fsl_flexspi.o
    0x81e00674   0x60009a90   0x0000000a   Ven    RO         4614    Veneer$$Code        anon$$obj.o
    0x81e0067e   0x60009a9a   0x0000000a   Ven    RO         4615    Veneer$$Code        anon$$obj.o
    0x81e00688   0x60009aa4   0x0000000a   Ven    RO         4616    Veneer$$Code        anon$$obj.o
    0x81e00692   COMPRESSED   0x00000002   PAD
    0x81e00694   COMPRESSED   0x00031040   Data   RW          270    NonCacheable.init   fingertech_common.o


==============================================================================

Image component sizes


      Code (inc. data)   RO Data    RW Data    ZI Data      Debug   Object Name

       876         72          0          0          0    1443153   board.o
      1052        290         26          0          0      13119   clock_config.o
         0          0        512          0          0       5814   evkbimxrt1050_flexspi_nor_config.o
         0          0       1072          0          0        555   evkbimxrt1050_sdram_ini_dcd.o
       884         24          0          1          0       4375   fingertech_algorithm.o
      2248        220         28        432         88      69579   fingertech_camera.o
      1406        232          3     200769     100352      72482   fingertech_common.o
        92         16          0          2          0      48201   fingertech_exit.o
       710         22        256          0          0      18006   fingertech_flashconfig.o
       718        136          0          0          0       5732   fingertech_i2c_api.o
      1166        336          3          3        196      25531   fingertech_spiconfig.o
        68         44          0          0          0        641   fsl_assert.o
      1464        124         16          8          0      16234   fsl_clock.o
       912        210          8          0          0      10599   fsl_csi.o
       140          4          0          8          0       4034   fsl_debug_console.o
       260        126          6          0          0      12673   fsl_dmamux.o
      3142       1074         70          1        128      29604   fsl_edma.o
      2962        274          8          4          0      17782   fsl_flexspi.o
         0          0         48          0          0       2122   fsl_flexspi_nor_boot.o
       558        168         36          0          0       5820   fsl_gpio.o
        68          4          0          8          0       1778   fsl_io.o
       114         48          0          0          0       2001   fsl_log.o
      2224        450         40          8         40      24856   fsl_lpi2c.o
      1166        472         48         13         20      20774   fsl_lpspi.o
      1956        302          0          0         64      18279   fsl_lpspi_edma.o
       668        184          0          4         36      12091   fsl_lpuart.o
       726          0          0          0          0       3646   fsl_str.o
       108         22          0          0          0        547   main.o
       398         64          0          0          0      81300   pin_mux.o
       642         52          0          0          0       3638   pis1701.o
       472        216       1024          0          0       3136   startup_mimxrt1052.o
       486         38          0          4          0    1386587   system_mimxrt1052.o

    ----------------------------------------------------------------------
     27802       5224       3292     201272     102972    3364689   Object Totals
        80          0         80          0       2048          0   (incl. Generated)
        36          0          8          7          0          0   (incl. Padding)

    ----------------------------------------------------------------------

      Code (inc. data)   RO Data    RW Data    ZI Data      Debug   Library Member Name

        86          0          0          0          0          0   __dczerorl2.o
         0          0          0          0          0          0   entry.o
         0          0          0          0          0          0   entry10a.o
         0          0          0          0          0          0   entry11a.o
         8          4          0          0          0          0   entry4.o
         4          0          0          0          0          0   entry5.o
         0          0          0          0          0          0   entry7b.o
         0          0          0          0          0          0   entry8b.o
         8          4          0          0          0          0   entry9a.o
        30          0          0          0          0          0   handlers.o
        36          8          0          0          0         68   init.o
        30          0          0          0          0         68   llshl.o
        32          0          0          0          0         68   llushr.o
        36          0          0          0          0         68   memcpya.o
        36          0          0          0          0        108   memseta.o
      1154         54          0          0          0        352   printf8.o
        14          0          0          0          0         68   strlen.o
        98          0          0          0          0         92   uldiv.o

    ----------------------------------------------------------------------
      1578         70          0          0          0        892   Library Totals
         6          0          0          0          0          0   (incl. Padding)

    ----------------------------------------------------------------------

      Code (inc. data)   RO Data    RW Data    ZI Data      Debug   Library Name

      1572         70          0          0          0        892   mc_w.l

    ----------------------------------------------------------------------
      1578         70          0          0          0        892   Library Totals

    ----------------------------------------------------------------------

==============================================================================


      Code (inc. data)   RO Data    RW Data    ZI Data      Debug   

     29380       5294       3292     201272     102972    3343101   Grand Totals
     29380       5294       3292       1944     102972    3343101   ELF Image Totals (compressed)
     29380       5294       3292       1944          0          0   ROM Totals

==============================================================================

    Total RO  Size (Code + RO Data)                32672 (  31.91kB)
    Total RW  Size (RW Data + ZI Data)            304244 ( 297.11kB)
    Total ROM Size (Code + RO Data + RW Data)      34616 (  33.80kB)

==============================================================================

